---
triple:          'arm64-apple-darwin'
binary-path:     polynom
relocations:
  - { offsetInCU: 0x3F, offset: 0x3F, size: 0x8, addend: 0x0, symName: _num_of_funcs, symObjAddr: 0x430B8, symBinAddr: 0x100010000, symSize: 0x0 }
  - { offsetInCU: 0x5B, offset: 0x5B, size: 0x8, addend: 0x0, symName: _num_of_forms, symObjAddr: 0x430BC, symBinAddr: 0x100010004, symSize: 0x0 }
  - { offsetInCU: 0x70, offset: 0x70, size: 0x8, addend: 0x0, symName: _c, symObjAddr: 0x430C0, symBinAddr: 0x100010008, symSize: 0x0 }
  - { offsetInCU: 0x85, offset: 0x85, size: 0x8, addend: 0x0, symName: _e, symObjAddr: 0x430C4, symBinAddr: 0x10001000C, symSize: 0x0 }
  - { offsetInCU: 0x9A, offset: 0x9A, size: 0x8, addend: 0x0, symName: _forms, symObjAddr: 0x430C8, symBinAddr: 0x100010010, symSize: 0x0 }
  - { offsetInCU: 0x6463, offset: 0x6463, size: 0x8, addend: 0x0, symName: __ZNSt3__124__put_character_sequenceB7v160006IcNS_11char_traitsIcEEEERNS_13basic_ostreamIT_T0_EES7_PKS4_m, symObjAddr: 0x1EA0, symBinAddr: 0x100005788, symSize: 0x1EC }
  - { offsetInCU: 0x773D, offset: 0x773D, size: 0x8, addend: 0x0, symName: __ZNSt3__111__introsortINS_17_ClassicAlgPolicyERPFb4FormS2_EPS2_EEvT1_S7_T0_NS_15iterator_traitsIS7_E15difference_typeE, symObjAddr: 0x5DBC, symBinAddr: 0x1000096A4, symSize: 0x8AC }
  - { offsetInCU: 0x789D, offset: 0x789D, size: 0x8, addend: 0x0, symName: __ZNSt3__118__insertion_sort_3B7v160006INS_17_ClassicAlgPolicyERPFb4FormS2_EPS2_EEvT1_S7_T0_, symObjAddr: 0x679C, symBinAddr: 0x10000A084, symSize: 0x178 }
  - { offsetInCU: 0x7970, offset: 0x7970, size: 0x8, addend: 0x0, symName: __ZNSt3__111__sift_downB7v160006INS_17_ClassicAlgPolicyERPFb4FormS2_EPS2_EEvT1_OT0_NS_15iterator_traitsIS7_E15difference_typeES7_, symObjAddr: 0x7320, symBinAddr: 0x10000AC08, symSize: 0x270 }
  - { offsetInCU: 0x7A1D, offset: 0x7A1D, size: 0x8, addend: 0x0, symName: __ZNSt3__117__floyd_sift_downB7v160006INS_17_ClassicAlgPolicyERPFb4FormS2_EPS2_EET1_S7_OT0_NS_15iterator_traitsIS7_E15difference_typeE, symObjAddr: 0x7714, symBinAddr: 0x10000AFFC, symSize: 0x118 }
  - { offsetInCU: 0x7AB5, offset: 0x7AB5, size: 0x8, addend: 0x0, symName: __ZNSt3__127__insertion_sort_incompleteIRPFb4FormS1_EPS1_EEbT0_S6_T_, symObjAddr: 0x6BCC, symBinAddr: 0x10000A4B4, symSize: 0x360 }
  - { offsetInCU: 0x8B82, offset: 0x8B82, size: 0x8, addend: 0x0, symName: __ZNSt3__14endlB7v160006IcNS_11char_traitsIcEEEERNS_13basic_ostreamIT_T0_EES7_, symObjAddr: 0x1D8, symBinAddr: 0x100003AC0, symSize: 0x58 }
  - { offsetInCU: 0x8BC2, offset: 0x8BC2, size: 0x8, addend: 0x0, symName: __ZNSt3__1neB7v160006IP4FormEEbRKNS_11__wrap_iterIT_EES7_, symObjAddr: 0x290, symBinAddr: 0x100003B78, symSize: 0x34 }
  - { offsetInCU: 0x8C05, offset: 0x8C05, size: 0x8, addend: 0x0, symName: __ZNSt3__1lsB7v160006INS_11char_traitsIcEEEERNS_13basic_ostreamIcT_EES6_PKc, symObjAddr: 0x2DC, symBinAddr: 0x100003BC4, symSize: 0x48 }
  - { offsetInCU: 0x8C4B, offset: 0x8C4B, size: 0x8, addend: 0x0, symName: __ZNSt3__1eqB7v160006IPiEEbRKNS_11__wrap_iterIT_EES6_, symObjAddr: 0x57C, symBinAddr: 0x100003E64, symSize: 0x48 }
  - { offsetInCU: 0x8C8E, offset: 0x8C8E, size: 0x8, addend: 0x0, symName: __ZNSt3__14findB7v160006INS_11__wrap_iterIPiEEiEET_S4_S4_RKT0_, symObjAddr: 0x5C4, symBinAddr: 0x100003EAC, symSize: 0x80 }
  - { offsetInCU: 0x8CE8, offset: 0x8CE8, size: 0x8, addend: 0x0, symName: __ZNSt3__17getlineB7v160006IcNS_11char_traitsIcEENS_9allocatorIcEEEERNS_13basic_istreamIT_T0_EES9_RNS_12basic_stringIS6_S7_T1_EE, symObjAddr: 0x924, symBinAddr: 0x10000420C, symSize: 0x5C }
  - { offsetInCU: 0x9623, offset: 0x9623, size: 0x8, addend: 0x0, symName: __ZNSt3__14sortB7v160006INS_11__wrap_iterIP4FormEEPFbS2_S2_EEEvT_S7_T0_, symObjAddr: 0xB7C, symBinAddr: 0x100004464, symSize: 0x48 }
  - { offsetInCU: 0x967D, offset: 0x967D, size: 0x8, addend: 0x0, symName: __ZNSt3__1eqB7v160006IP4FormEEbRKNS_11__wrap_iterIT_EES7_, symObjAddr: 0xBC4, symBinAddr: 0x1000044AC, symSize: 0x48 }
  - { offsetInCU: 0x96C0, offset: 0x96C0, size: 0x8, addend: 0x0, symName: __ZNSt3__119__debug_db_insert_cB7v160006INS_12basic_stringIcNS_11char_traitsIcEENS_9allocatorIcEEEEEEvPT_, symObjAddr: 0xF2C, symBinAddr: 0x100004814, symSize: 0x10 }
  - { offsetInCU: 0x96F1, offset: 0x96F1, size: 0x8, addend: 0x0, symName: __ZNSt3__118__constexpr_strlenB7v160006EPKc, symObjAddr: 0xFF8, symBinAddr: 0x1000048E0, symSize: 0x24 }
  - { offsetInCU: 0x971D, offset: 0x971D, size: 0x8, addend: 0x0, symName: __ZNSt3__119__debug_db_insert_cB7v160006INS_6vectorI4FormNS_9allocatorIS2_EEEEEEvPT_, symObjAddr: 0x10BC, symBinAddr: 0x1000049A4, symSize: 0x10 }
  - { offsetInCU: 0x974E, offset: 0x974E, size: 0x8, addend: 0x0, symName: __ZNSt3__118__debug_db_erase_cB7v160006INS_6vectorI4FormNS_9allocatorIS2_EEEEEEvPT_, symObjAddr: 0x1380, symBinAddr: 0x100004C68, symSize: 0x10 }
  - { offsetInCU: 0x977F, offset: 0x977F, size: 0x8, addend: 0x0, symName: __ZNSt3__112__to_addressB7v160006I4FormEEPT_S3_, symObjAddr: 0x149C, symBinAddr: 0x100004D84, symSize: 0x14 }
  - { offsetInCU: 0x97B4, offset: 0x97B4, size: 0x8, addend: 0x0, symName: __ZNSt3__119__libcpp_deallocateB7v160006EPvmm, symObjAddr: 0x15BC, symBinAddr: 0x100004EA4, symSize: 0x30 }
  - { offsetInCU: 0x97FC, offset: 0x97FC, size: 0x8, addend: 0x0, symName: __ZNSt3__127__do_deallocate_handle_sizeB7v160006IJEEEvPvmDpT_, symObjAddr: 0x15EC, symBinAddr: 0x100004ED4, symSize: 0x28 }
  - { offsetInCU: 0x983A, offset: 0x983A, size: 0x8, addend: 0x0, symName: __ZNSt3__124__libcpp_operator_deleteB7v160006IJPvEEEvDpT_, symObjAddr: 0x1614, symBinAddr: 0x100004EFC, symSize: 0x24 }
  - { offsetInCU: 0x986F, offset: 0x986F, size: 0x8, addend: 0x0, symName: __ZNSt3__119__debug_db_insert_cB7v160006INS_6vectorIiNS_9allocatorIiEEEEEEvPT_, symObjAddr: 0x1764, symBinAddr: 0x10000504C, symSize: 0x10 }
  - { offsetInCU: 0x98A0, offset: 0x98A0, size: 0x8, addend: 0x0, symName: __ZNSt3__118__debug_db_erase_cB7v160006INS_6vectorIiNS_9allocatorIiEEEEEEvPT_, symObjAddr: 0x1A28, symBinAddr: 0x100005310, symSize: 0x10 }
  - { offsetInCU: 0x98D1, offset: 0x98D1, size: 0x8, addend: 0x0, symName: __ZNSt3__112__to_addressB7v160006IiEEPT_S2_, symObjAddr: 0x1B6C, symBinAddr: 0x100005454, symSize: 0x14 }
  - { offsetInCU: 0x9906, offset: 0x9906, size: 0x8, addend: 0x0, symName: __ZNSt3__19use_facetB7v160006INS_5ctypeIcEEEERKT_RKNS_6localeE, symObjAddr: 0x1DA8, symBinAddr: 0x100005690, symSize: 0x2C }
  - { offsetInCU: 0x9DD5, offset: 0x9DD5, size: 0x8, addend: 0x0, symName: __ZNSt3__116__pad_and_outputB7v160006IcNS_11char_traitsIcEEEENS_19ostreambuf_iteratorIT_T0_EES6_PKS4_S8_S8_RNS_8ios_baseES4_, symObjAddr: 0x20A8, symBinAddr: 0x100005990, symSize: 0x240 }
  - { offsetInCU: 0x9EA4, offset: 0x9EA4, size: 0x8, addend: 0x0, symName: __ZNSt3__112__to_addressB7v160006IKcEEPT_S3_, symObjAddr: 0x2520, symBinAddr: 0x100005E08, symSize: 0x14 }
  - { offsetInCU: 0x9F0C, offset: 0x9F0C, size: 0x8, addend: 0x0, symName: __ZNSt3__1neB7v160006IPiEEbRKNS_11__wrap_iterIT_EES6_, symObjAddr: 0x2774, symBinAddr: 0x10000605C, symSize: 0x34 }
  - { offsetInCU: 0x9F4F, offset: 0x9F4F, size: 0x8, addend: 0x0, symName: __ZNSt3__13maxB7v160006ImEERKT_S3_S3_, symObjAddr: 0x2D88, symBinAddr: 0x100006670, symSize: 0x2C }
  - { offsetInCU: 0x9F92, offset: 0x9F92, size: 0x8, addend: 0x0, symName: __ZNSt3__13minB7v160006ImEERKT_S3_S3_, symObjAddr: 0x2DB4, symBinAddr: 0x10000669C, symSize: 0x2C }
  - { offsetInCU: 0xA1D6, offset: 0xA1D6, size: 0x8, addend: 0x0, symName: __ZNSt3__13minB7v160006ImNS_6__lessImmEEEERKT_S5_S5_T0_, symObjAddr: 0x2E40, symBinAddr: 0x100006728, symSize: 0x54 }
  - { offsetInCU: 0xA26B, offset: 0xA26B, size: 0x8, addend: 0x0, symName: __ZNSt3__120__throw_length_errorB7v160006EPKc, symObjAddr: 0x2F1C, symBinAddr: 0x100006804, symSize: 0x64 }
  - { offsetInCU: 0xA293, offset: 0xA293, size: 0x8, addend: 0x0, symName: __ZNSt3__13maxB7v160006ImNS_6__lessImmEEEERKT_S5_S5_T0_, symObjAddr: 0x3000, symBinAddr: 0x1000068E8, symSize: 0x54 }
  - { offsetInCU: 0xA2ED, offset: 0xA2ED, size: 0x8, addend: 0x0, symName: __ZNSt3__119__allocate_at_leastB7v160006INS_9allocatorIiEEEENS_19__allocation_resultINS_16allocator_traitsIT_E7pointerEEERS5_m, symObjAddr: 0x3164, symBinAddr: 0x100006A4C, symSize: 0x40 }
  - { offsetInCU: 0xA330, offset: 0xA330, size: 0x8, addend: 0x0, symName: __ZNSt3__117__libcpp_allocateB7v160006Emm, symObjAddr: 0x32E8, symBinAddr: 0x100006BD0, symSize: 0x28 }
  - { offsetInCU: 0xA36D, offset: 0xA36D, size: 0x8, addend: 0x0, symName: __ZNSt3__121__libcpp_operator_newB7v160006IJmEEEPvDpT_, symObjAddr: 0x3310, symBinAddr: 0x100006BF8, symSize: 0x24 }
  - { offsetInCU: 0xA3A6, offset: 0xA3A6, size: 0x8, addend: 0x0, symName: __ZNSt3__142__uninitialized_allocator_move_if_noexceptB7v160006INS_9allocatorIiEENS_16reverse_iteratorIPiEES5_ivEET1_RT_T0_S9_S6_, symObjAddr: 0x3398, symBinAddr: 0x100006C80, symSize: 0x78 }
  - { offsetInCU: 0xA423, offset: 0xA423, size: 0x8, addend: 0x0, symName: __ZNSt3__14swapB7v160006IPiEENS_9enable_ifIXaasr21is_move_constructibleIT_EE5valuesr18is_move_assignableIS3_EE5valueEvE4typeERS3_S6_, symObjAddr: 0x345C, symBinAddr: 0x100006D44, symSize: 0x3C }
  - { offsetInCU: 0xA474, offset: 0xA474, size: 0x8, addend: 0x0, symName: __ZNSt3__125__debug_db_invalidate_allB7v160006INS_6vectorIiNS_9allocatorIiEEEEEEvPT_, symObjAddr: 0x3544, symBinAddr: 0x100006E2C, symSize: 0x10 }
  - { offsetInCU: 0xA4A5, offset: 0xA4A5, size: 0x8, addend: 0x0, symName: __ZNSt3__14moveB7v160006INS_16reverse_iteratorIPiEES3_EET0_T_S5_S4_, symObjAddr: 0x3554, symBinAddr: 0x100006E3C, symSize: 0x78 }
  - { offsetInCU: 0xA4FF, offset: 0xA4FF, size: 0x8, addend: 0x0, symName: __ZNSt3__16__moveB7v160006INS_17_ClassicAlgPolicyENS_16reverse_iteratorIPiEES4_S4_EENS_4pairIT0_T2_EES6_T1_S7_, symObjAddr: 0x35CC, symBinAddr: 0x100006EB4, symSize: 0x64 }
  - { offsetInCU: 0xA56B, offset: 0xA56B, size: 0x8, addend: 0x0, symName: __ZNSt3__123__dispatch_copy_or_moveB7v160006INS_17_ClassicAlgPolicyENS_11__move_loopIS1_EENS_14__move_trivialENS_16reverse_iteratorIPiEES7_S7_EENS_4pairIT2_T4_EES9_T3_SA_, symObjAddr: 0x3630, symBinAddr: 0x100006F18, symSize: 0x64 }
  - { offsetInCU: 0xA5E9, offset: 0xA5E9, size: 0x8, addend: 0x0, symName: __ZNSt3__121__unwrap_and_dispatchB7v160006INS_10__overloadINS_11__move_loopINS_17_ClassicAlgPolicyEEENS_14__move_trivialEEENS_16reverse_iteratorIPiEES9_S9_Li0EEENS_4pairIT0_T2_EESB_T1_SC_, symObjAddr: 0x3694, symBinAddr: 0x100006F7C, symSize: 0x12C }
  - { offsetInCU: 0xA679, offset: 0xA679, size: 0x8, addend: 0x0, symName: __ZNSt3__114__unwrap_rangeB7v160006INS_16reverse_iteratorIPiEES3_EENS_4pairIT0_S5_EET_S7_, symObjAddr: 0x37C0, symBinAddr: 0x1000070A8, symSize: 0x84 }
  - { offsetInCU: 0xA833, offset: 0xA833, size: 0x8, addend: 0x0, symName: __ZNSt3__113__unwrap_iterB7v160006INS_16reverse_iteratorIPiEENS_18__unwrap_iter_implIS3_Lb0EEELi0EEEDTclsrT0_8__unwrapclsr3stdE7declvalIT_EEEES7_, symObjAddr: 0x38E4, symBinAddr: 0x1000071CC, symSize: 0x44 }
  - { offsetInCU: 0xA877, offset: 0xA877, size: 0x8, addend: 0x0, symName: __ZNSt3__19make_pairB7v160006INS_16reverse_iteratorIPiEES3_EENS_4pairINS_18__unwrap_ref_decayIT_E4typeENS5_IT0_E4typeEEEOS6_OS9_, symObjAddr: 0x3928, symBinAddr: 0x100007210, symSize: 0x38 }
  - { offsetInCU: 0xA8C6, offset: 0xA8C6, size: 0x8, addend: 0x0, symName: __ZNSt3__114__rewrap_rangeB7v160006INS_16reverse_iteratorIPiEES3_EET_S4_T0_, symObjAddr: 0x3960, symBinAddr: 0x100007248, symSize: 0x5C }
  - { offsetInCU: 0xA912, offset: 0xA912, size: 0x8, addend: 0x0, symName: __ZNSt3__113__rewrap_iterB7v160006INS_16reverse_iteratorIPiEES3_NS_18__unwrap_iter_implIS3_Lb0EEEEET_S6_T0_, symObjAddr: 0x39BC, symBinAddr: 0x1000072A4, symSize: 0x74 }
  - { offsetInCU: 0xA967, offset: 0xA967, size: 0x8, addend: 0x0, symName: __ZNSt3__1neB7v160006IPiS1_EEbRKNS_16reverse_iteratorIT_EERKNS2_IT0_EE, symObjAddr: 0x3A30, symBinAddr: 0x100007318, symSize: 0x48 }
  - { offsetInCU: 0xAB16, offset: 0xAB16, size: 0x8, addend: 0x0, symName: __ZNSt3__119__allocate_at_leastB7v160006INS_9allocatorI4FormEEEENS_19__allocation_resultINS_16allocator_traitsIT_E7pointerEEERS6_m, symObjAddr: 0x45A8, symBinAddr: 0x100007E90, symSize: 0x40 }
  - { offsetInCU: 0xAB59, offset: 0xAB59, size: 0x8, addend: 0x0, symName: __ZNSt3__142__uninitialized_allocator_move_if_noexceptB7v160006INS_9allocatorI4FormEENS_16reverse_iteratorIPS2_EES6_S2_vEET1_RT_T0_SA_S7_, symObjAddr: 0x475C, symBinAddr: 0x100008044, symSize: 0x78 }
  - { offsetInCU: 0xABD6, offset: 0xABD6, size: 0x8, addend: 0x0, symName: __ZNSt3__14swapB7v160006IP4FormEENS_9enable_ifIXaasr21is_move_constructibleIT_EE5valuesr18is_move_assignableIS4_EE5valueEvE4typeERS4_S7_, symObjAddr: 0x4820, symBinAddr: 0x100008108, symSize: 0x3C }
  - { offsetInCU: 0xAC27, offset: 0xAC27, size: 0x8, addend: 0x0, symName: __ZNSt3__125__debug_db_invalidate_allB7v160006INS_6vectorI4FormNS_9allocatorIS2_EEEEEEvPT_, symObjAddr: 0x4908, symBinAddr: 0x1000081F0, symSize: 0x10 }
  - { offsetInCU: 0xAC58, offset: 0xAC58, size: 0x8, addend: 0x0, symName: __ZNSt3__14moveB7v160006INS_16reverse_iteratorIP4FormEES4_EET0_T_S6_S5_, symObjAddr: 0x4918, symBinAddr: 0x100008200, symSize: 0x78 }
  - { offsetInCU: 0xACB2, offset: 0xACB2, size: 0x8, addend: 0x0, symName: __ZNSt3__16__moveB7v160006INS_17_ClassicAlgPolicyENS_16reverse_iteratorIP4FormEES5_S5_EENS_4pairIT0_T2_EES7_T1_S8_, symObjAddr: 0x4990, symBinAddr: 0x100008278, symSize: 0x64 }
  - { offsetInCU: 0xAD1E, offset: 0xAD1E, size: 0x8, addend: 0x0, symName: __ZNSt3__123__dispatch_copy_or_moveB7v160006INS_17_ClassicAlgPolicyENS_11__move_loopIS1_EENS_14__move_trivialENS_16reverse_iteratorIP4FormEES8_S8_EENS_4pairIT2_T4_EESA_T3_SB_, symObjAddr: 0x49F4, symBinAddr: 0x1000082DC, symSize: 0x64 }
  - { offsetInCU: 0xAD9C, offset: 0xAD9C, size: 0x8, addend: 0x0, symName: __ZNSt3__121__unwrap_and_dispatchB7v160006INS_10__overloadINS_11__move_loopINS_17_ClassicAlgPolicyEEENS_14__move_trivialEEENS_16reverse_iteratorIP4FormEESA_SA_Li0EEENS_4pairIT0_T2_EESC_T1_SD_, symObjAddr: 0x4A58, symBinAddr: 0x100008340, symSize: 0x12C }
  - { offsetInCU: 0xAE2C, offset: 0xAE2C, size: 0x8, addend: 0x0, symName: __ZNSt3__114__unwrap_rangeB7v160006INS_16reverse_iteratorIP4FormEES4_EENS_4pairIT0_S6_EET_S8_, symObjAddr: 0x4B84, symBinAddr: 0x10000846C, symSize: 0x84 }
  - { offsetInCU: 0xAF4C, offset: 0xAF4C, size: 0x8, addend: 0x0, symName: __ZNSt3__113__unwrap_iterB7v160006INS_16reverse_iteratorIP4FormEENS_18__unwrap_iter_implIS4_Lb0EEELi0EEEDTclsrT0_8__unwrapclsr3stdE7declvalIT_EEEES8_, symObjAddr: 0x4CA8, symBinAddr: 0x100008590, symSize: 0x44 }
  - { offsetInCU: 0xAF90, offset: 0xAF90, size: 0x8, addend: 0x0, symName: __ZNSt3__19make_pairB7v160006INS_16reverse_iteratorIP4FormEES4_EENS_4pairINS_18__unwrap_ref_decayIT_E4typeENS6_IT0_E4typeEEEOS7_OSA_, symObjAddr: 0x4CEC, symBinAddr: 0x1000085D4, symSize: 0x38 }
  - { offsetInCU: 0xAFDF, offset: 0xAFDF, size: 0x8, addend: 0x0, symName: __ZNSt3__114__rewrap_rangeB7v160006INS_16reverse_iteratorIP4FormEES4_EET_S5_T0_, symObjAddr: 0x4D24, symBinAddr: 0x10000860C, symSize: 0x5C }
  - { offsetInCU: 0xB02B, offset: 0xB02B, size: 0x8, addend: 0x0, symName: __ZNSt3__113__rewrap_iterB7v160006INS_16reverse_iteratorIP4FormEES4_NS_18__unwrap_iter_implIS4_Lb0EEEEET_S7_T0_, symObjAddr: 0x4D80, symBinAddr: 0x100008668, symSize: 0x74 }
  - { offsetInCU: 0xB080, offset: 0xB080, size: 0x8, addend: 0x0, symName: __ZNSt3__1neB7v160006IP4FormS2_EEbRKNS_16reverse_iteratorIT_EERKNS3_IT0_EE, symObjAddr: 0x4DF4, symBinAddr: 0x1000086DC, symSize: 0x48 }
  - { offsetInCU: 0xB138, offset: 0xB138, size: 0x8, addend: 0x0, symName: __ZNSt3__17getlineB7v160006IcNS_11char_traitsIcEENS_9allocatorIcEEEERNS_13basic_istreamIT_T0_EES9_RNS_12basic_stringIS6_S7_T1_EES6_, symObjAddr: 0x5184, symBinAddr: 0x100008A6C, symSize: 0x238 }
  - { offsetInCU: 0xB1F6, offset: 0xB1F6, size: 0x8, addend: 0x0, symName: __ZNSt3__125__debug_db_invalidate_allB7v160006INS_12basic_stringIcNS_11char_traitsIcEENS_9allocatorIcEEEEEEvPT_, symObjAddr: 0x564C, symBinAddr: 0x100008F34, symSize: 0x10 }
  - { offsetInCU: 0xB45C, offset: 0xB45C, size: 0x8, addend: 0x0, symName: __ZNSt3__111__sort_implB7v160006INS_17_ClassicAlgPolicyENS_11__wrap_iterIP4FormEEPFbS3_S3_EEEvT0_S8_RT1_, symObjAddr: 0x5C28, symBinAddr: 0x100009510, symSize: 0x84 }
  - { offsetInCU: 0xB503, offset: 0xB503, size: 0x8, addend: 0x0, symName: __ZNSt3__123__debug_randomize_rangeB7v160006INS_17_ClassicAlgPolicyENS_11__wrap_iterIP4FormEES5_EEvT0_T1_, symObjAddr: 0x5CAC, symBinAddr: 0x100009594, symSize: 0x14 }
  - { offsetInCU: 0xB554, offset: 0xB554, size: 0x8, addend: 0x0, symName: __ZNSt3__16__sortIRPFb4FormS1_EPS1_EEvT0_S6_T_, symObjAddr: 0x5CC0, symBinAddr: 0x1000095A8, symSize: 0x68 }
  - { offsetInCU: 0xB5E4, offset: 0xB5E4, size: 0x8, addend: 0x0, symName: __ZNSt3__113__unwrap_iterB7v160006INS_11__wrap_iterIP4FormEENS_18__unwrap_iter_implIS4_Lb1EEELi0EEEDTclsrT0_8__unwrapclsr3stdE7declvalIT_EEEES8_, symObjAddr: 0x5D28, symBinAddr: 0x100009610, symSize: 0x2C }
  - { offsetInCU: 0xB628, offset: 0xB628, size: 0x8, addend: 0x0, symName: __ZNSt3__17__log2iB7v160006IlEET_S1_, symObjAddr: 0x5D54, symBinAddr: 0x10000963C, symSize: 0x54 }
  - { offsetInCU: 0xB692, offset: 0xB692, size: 0x8, addend: 0x0, symName: __ZNSt3__112__libcpp_clzB7v160006Em, symObjAddr: 0x6680, symBinAddr: 0x100009F68, symSize: 0x1C }
  - { offsetInCU: 0xB6BE, offset: 0xB6BE, size: 0x8, addend: 0x0, symName: __ZNSt3__124__sort3_maybe_branchlessB7v160006INS_17_ClassicAlgPolicyERPFb4FormS2_EPS2_EENS_9enable_ifIXntsr21__use_branchless_sortIT0_T1_EE5valueEvE4typeES9_S9_S9_S8_, symObjAddr: 0x66D0, symBinAddr: 0x100009FB8, symSize: 0x3C }
  - { offsetInCU: 0xB72F, offset: 0xB72F, size: 0x8, addend: 0x0, symName: __ZNSt3__124__sort4_maybe_branchlessB7v160006INS_17_ClassicAlgPolicyERPFb4FormS2_EPS2_EENS_9enable_ifIXntsr21__use_branchless_sortIT0_T1_EE5valueEvE4typeES9_S9_S9_S9_S8_, symObjAddr: 0x670C, symBinAddr: 0x100009FF4, symSize: 0x44 }
  - { offsetInCU: 0xB7B4, offset: 0xB7B4, size: 0x8, addend: 0x0, symName: __ZNSt3__124__sort5_maybe_branchlessB7v160006INS_17_ClassicAlgPolicyERPFb4FormS2_EPS2_EENS_9enable_ifIXntsr21__use_branchless_sortIT0_T1_EE5valueEvE4typeES9_S9_S9_S9_S9_S8_, symObjAddr: 0x6750, symBinAddr: 0x10000A038, symSize: 0x4C }
  - { offsetInCU: 0xB848, offset: 0xB848, size: 0x8, addend: 0x0, symName: __ZNSt3__114__partial_sortB7v160006INS_17_ClassicAlgPolicyERPFb4FormS2_EPS2_S6_EET1_S7_S7_T2_RT0_, symObjAddr: 0x6914, symBinAddr: 0x10000A1FC, symSize: 0x94 }
  - { offsetInCU: 0xB8D0, offset: 0xB8D0, size: 0x8, addend: 0x0, symName: __ZNSt3__119__sort5_wrap_policyB7v160006INS_17_ClassicAlgPolicyERPFb4FormS2_EPS2_EEjT1_S7_S7_S7_S7_T0_, symObjAddr: 0x69A8, symBinAddr: 0x10000A290, symSize: 0x54 }
  - { offsetInCU: 0xB976, offset: 0xB976, size: 0x8, addend: 0x0, symName: __ZNSt3__17__sort3B7v160006INS_17_ClassicAlgPolicyERPFb4FormS2_EPS2_EEjT1_S7_S7_T0_, symObjAddr: 0x69FC, symBinAddr: 0x10000A2E4, symSize: 0x1D0 }
  - { offsetInCU: 0xB9F5, offset: 0xB9F5, size: 0x8, addend: 0x0, symName: __ZNSt3__19iter_swapB7v160006IP4FormS2_EEvT_T0_, symObjAddr: 0x6F44, symBinAddr: 0x10000A82C, symSize: 0x2C }
  - { offsetInCU: 0xBA3D, offset: 0xBA3D, size: 0x8, addend: 0x0, symName: __ZNSt3__14swapB7v160006I4FormEENS_9enable_ifIXaasr21is_move_constructibleIT_EE5valuesr18is_move_assignableIS3_EE5valueEvE4typeERS3_S6_, symObjAddr: 0x6F70, symBinAddr: 0x10000A858, symSize: 0x3C }
  - { offsetInCU: 0xBA8E, offset: 0xBA8E, size: 0x8, addend: 0x0, symName: __ZNSt3__17__sort4B7v160006INS_17_ClassicAlgPolicyERPFb4FormS2_EPS2_EEjT1_S7_S7_S7_T0_, symObjAddr: 0x6FAC, symBinAddr: 0x10000A894, symSize: 0x138 }
  - { offsetInCU: 0xBB1B, offset: 0xBB1B, size: 0x8, addend: 0x0, symName: __ZNSt3__123__debug_randomize_rangeB7v160006INS_17_ClassicAlgPolicyEP4FormS3_EEvT0_T1_, symObjAddr: 0x7128, symBinAddr: 0x10000AA10, symSize: 0x14 }
  - { offsetInCU: 0xBB6C, offset: 0xBB6C, size: 0x8, addend: 0x0, symName: __ZNSt3__119__partial_sort_implB7v160006INS_17_ClassicAlgPolicyERPFb4FormS2_EPS2_S6_EET1_S7_S7_T2_OT0_, symObjAddr: 0x713C, symBinAddr: 0x10000AA24, symSize: 0x12C }
  - { offsetInCU: 0xBC02, offset: 0xBC02, size: 0x8, addend: 0x0, symName: __ZNSt3__111__make_heapB7v160006INS_17_ClassicAlgPolicyERPFb4FormS2_EPS2_EEvT1_S7_OT0_, symObjAddr: 0x7268, symBinAddr: 0x10000AB50, symSize: 0xB8 }
  - { offsetInCU: 0xBCA4, offset: 0xBCA4, size: 0x8, addend: 0x0, symName: __ZNSt3__111__sort_heapB7v160006INS_17_ClassicAlgPolicyERPFb4FormS2_EPS2_EEvT1_S7_OT0_, symObjAddr: 0x7590, symBinAddr: 0x10000AE78, symSize: 0x90 }
  - { offsetInCU: 0xBD38, offset: 0xBD38, size: 0x8, addend: 0x0, symName: __ZNSt3__110__pop_heapB7v160006INS_17_ClassicAlgPolicyEPFb4FormS2_EPS2_EEvT1_S6_RT0_NS_15iterator_traitsIS6_E15difference_typeE, symObjAddr: 0x7620, symBinAddr: 0x10000AF08, symSize: 0xF4 }
  - { offsetInCU: 0xBDE8, offset: 0xBDE8, size: 0x8, addend: 0x0, symName: __ZNSt3__19__sift_upB7v160006INS_17_ClassicAlgPolicyERPFb4FormS2_EPS2_EEvT1_S7_OT0_NS_15iterator_traitsIS7_E15difference_typeE, symObjAddr: 0x782C, symBinAddr: 0x10000B114, symSize: 0x150 }
  - { offsetInCU: 0xBE98, offset: 0xBE98, size: 0x8, addend: 0x0, symName: __ZNSt3__17__sort5IRPFb4FormS1_EPS1_EEjT0_S6_S6_S6_S6_T_, symObjAddr: 0x797C, symBinAddr: 0x10000B264, symSize: 0x19C }
  - { offsetInCU: 0xBF96, offset: 0xBF96, size: 0x8, addend: 0x0, symName: __ZNSt3__112__to_addressB7v160006INS_11__wrap_iterIP4FormEEvEENS_5decayIDTclsr19__to_address_helperIT_EE6__callclsr3stdE7declvalIRKS6_EEEEE4typeES8_, symObjAddr: 0x7B40, symBinAddr: 0x10000B428, symSize: 0x24 }
  - { offsetInCU: 0xC431, offset: 0xC431, size: 0x8, addend: 0x0, symName: __ZSt28__throw_bad_array_new_lengthB7v160006v, symObjAddr: 0x32B4, symBinAddr: 0x100006B9C, symSize: 0x34 }
  - { offsetInCU: 0xC67A, offset: 0xC67A, size: 0x8, addend: 0x0, symName: _out_forms, symObjAddr: 0x430E0, symBinAddr: 0x100010028, symSize: 0x0 }
  - { offsetInCU: 0xC68F, offset: 0xC68F, size: 0x8, addend: 0x0, symName: _out_c, symObjAddr: 0x430F8, symBinAddr: 0x100010040, symSize: 0x0 }
  - { offsetInCU: 0xC6A4, offset: 0xC6A4, size: 0x8, addend: 0x0, symName: _e_array, symObjAddr: 0x43100, symBinAddr: 0x100010048, symSize: 0x0 }
  - { offsetInCU: 0xCC28, offset: 0xCC28, size: 0x8, addend: 0x0, symName: __ZNSt3__16vectorIiNS_9allocatorIiEEE26__swap_out_circular_bufferERNS_14__split_bufferIiRS2_EE, symObjAddr: 0x2BC8, symBinAddr: 0x1000064B0, symSize: 0x118 }
  - { offsetInCU: 0xCC7F, offset: 0xCC7F, size: 0x8, addend: 0x0, symName: __ZNSt3__16vectorI4FormNS_9allocatorIS1_EEE26__swap_out_circular_bufferERNS_14__split_bufferIS1_RS3_EE, symObjAddr: 0x4240, symBinAddr: 0x100007B28, symSize: 0x118 }
  - { offsetInCU: 0xF264, offset: 0xF264, size: 0x8, addend: 0x0, symName: __ZNSt3__16vectorI4FormNS_9allocatorIS1_EEEC1B7v160006Ev, symObjAddr: 0x0, symBinAddr: 0x1000038E8, symSize: 0x2C }
  - { offsetInCU: 0xF28E, offset: 0xF28E, size: 0x8, addend: 0x0, symName: __ZNSt3__16vectorI4FormNS_9allocatorIS1_EEED1B7v160006Ev, symObjAddr: 0x2C, symBinAddr: 0x100003914, symSize: 0x2C }
  - { offsetInCU: 0xF2B8, offset: 0xF2B8, size: 0x8, addend: 0x0, symName: __ZNSt3__16vectorIiNS_9allocatorIiEEEC1B7v160006Ev, symObjAddr: 0x58, symBinAddr: 0x100003940, symSize: 0x2C }
  - { offsetInCU: 0xF2E2, offset: 0xF2E2, size: 0x8, addend: 0x0, symName: __ZNSt3__16vectorIiNS_9allocatorIiEEED1B7v160006Ev, symObjAddr: 0x84, symBinAddr: 0x10000396C, symSize: 0x2C }
  - { offsetInCU: 0xF30B, offset: 0xF30B, size: 0x8, addend: 0x0, symName: __Z6outputv, symObjAddr: 0xB0, symBinAddr: 0x100003998, symSize: 0xD4 }
  - { offsetInCU: 0xF377, offset: 0xF377, size: 0x8, addend: 0x0, symName: __ZNKSt3__16vectorI4FormNS_9allocatorIS1_EEE4sizeB7v160006Ev, symObjAddr: 0x184, symBinAddr: 0x100003A6C, symSize: 0x28 }
  - { offsetInCU: 0xF39D, offset: 0xF39D, size: 0x8, addend: 0x0, symName: __ZNSt3__113basic_ostreamIcNS_11char_traitsIcEEElsB7v160006EPFRS3_S4_E, symObjAddr: 0x1AC, symBinAddr: 0x100003A94, symSize: 0x2C }
  - { offsetInCU: 0xF3D1, offset: 0xF3D1, size: 0x8, addend: 0x0, symName: __ZNSt3__16vectorI4FormNS_9allocatorIS1_EEE5beginB7v160006Ev, symObjAddr: 0x230, symBinAddr: 0x100003B18, symSize: 0x30 }
  - { offsetInCU: 0xF3F9, offset: 0xF3F9, size: 0x8, addend: 0x0, symName: __ZNSt3__16vectorI4FormNS_9allocatorIS1_EEE3endB7v160006Ev, symObjAddr: 0x260, symBinAddr: 0x100003B48, symSize: 0x30 }
  - { offsetInCU: 0xF421, offset: 0xF421, size: 0x8, addend: 0x0, symName: __ZNKSt3__111__wrap_iterIP4FormEdeB7v160006Ev, symObjAddr: 0x2C4, symBinAddr: 0x100003BAC, symSize: 0x18 }
  - { offsetInCU: 0xF447, offset: 0xF447, size: 0x8, addend: 0x0, symName: __ZNSt3__111__wrap_iterIP4FormEppB7v160006Ev, symObjAddr: 0x324, symBinAddr: 0x100003C0C, symSize: 0x20 }
  - { offsetInCU: 0xF46C, offset: 0xF46C, size: 0x8, addend: 0x0, symName: __Z6mysort4FormS_, symObjAddr: 0x344, symBinAddr: 0x100003C2C, symSize: 0x28 }
  - { offsetInCU: 0xF4A6, offset: 0xF4A6, size: 0x8, addend: 0x0, symName: __Z4calcv, symObjAddr: 0x36C, symBinAddr: 0x100003C54, symSize: 0x210 }
  - { offsetInCU: 0xF4F9, offset: 0xF4F9, size: 0x8, addend: 0x0, symName: __ZNSt3__16vectorIiNS_9allocatorIiEEE5beginB7v160006Ev, symObjAddr: 0x644, symBinAddr: 0x100003F2C, symSize: 0x30 }
  - { offsetInCU: 0xF521, offset: 0xF521, size: 0x8, addend: 0x0, symName: __ZNSt3__16vectorIiNS_9allocatorIiEEE3endB7v160006Ev, symObjAddr: 0x674, symBinAddr: 0x100003F5C, symSize: 0x30 }
  - { offsetInCU: 0xF549, offset: 0xF549, size: 0x8, addend: 0x0, symName: __ZNSt3__16vectorI4FormNS_9allocatorIS1_EEEixB7v160006Em, symObjAddr: 0x6A4, symBinAddr: 0x100003F8C, symSize: 0x24 }
  - { offsetInCU: 0xF580, offset: 0xF580, size: 0x8, addend: 0x0, symName: __ZNSt3__16vectorIiNS_9allocatorIiEEE9push_backB7v160006ERKi, symObjAddr: 0x6C8, symBinAddr: 0x100003FB0, symSize: 0x6C }
  - { offsetInCU: 0xF5B7, offset: 0xF5B7, size: 0x8, addend: 0x0, symName: __ZNSt3__16vectorI4FormNS_9allocatorIS1_EEE12emplace_backIJRiS6_EEEvDpOT_, symObjAddr: 0x734, symBinAddr: 0x10000401C, symSize: 0x78 }
  - { offsetInCU: 0xF60C, offset: 0xF60C, size: 0x8, addend: 0x0, symName: __Z5inputv, symObjAddr: 0x7AC, symBinAddr: 0x100004094, symSize: 0x144 }
  - { offsetInCU: 0xF64E, offset: 0xF64E, size: 0x8, addend: 0x0, symName: __ZNSt3__112basic_stringIcNS_11char_traitsIcEENS_9allocatorIcEEEC1B7v160006IDnEEPKc, symObjAddr: 0x8F0, symBinAddr: 0x1000041D8, symSize: 0x34 }
  - { offsetInCU: 0xF68C, offset: 0xF68C, size: 0x8, addend: 0x0, symName: __ZNKSt3__112basic_stringIcNS_11char_traitsIcEENS_9allocatorIcEEE6lengthB7v160006Ev, symObjAddr: 0x980, symBinAddr: 0x100004268, symSize: 0x24 }
  - { offsetInCU: 0xF6B2, offset: 0xF6B2, size: 0x8, addend: 0x0, symName: __ZNKSt3__112basic_stringIcNS_11char_traitsIcEENS_9allocatorIcEEE5emptyB7v160006Ev, symObjAddr: 0x9A4, symBinAddr: 0x10000428C, symSize: 0x30 }
  - { offsetInCU: 0xF7AC, offset: 0xF7AC, size: 0x8, addend: 0x0, symName: __ZNSt3__119basic_istringstreamIcNS_11char_traitsIcEENS_9allocatorIcEEEC1B7v160006ERKNS_12basic_stringIcS2_S4_EEj, symObjAddr: 0x9D4, symBinAddr: 0x1000042BC, symSize: 0xFC }
  - { offsetInCU: 0xF7F9, offset: 0xF7F9, size: 0x8, addend: 0x0, symName: __ZNSt3__119basic_istringstreamIcNS_11char_traitsIcEENS_9allocatorIcEEED1Ev, symObjAddr: 0xAD0, symBinAddr: 0x1000043B8, symSize: 0x40 }
  - { offsetInCU: 0xF826, offset: 0xF826, size: 0x8, addend: 0x0, symName: _main, symObjAddr: 0xB10, symBinAddr: 0x1000043F8, symSize: 0x6C }
  - { offsetInCU: 0xF840, offset: 0xF840, size: 0x8, addend: 0x0, symName: __ZNKSt3__111__wrap_iterIP4FormE4baseB7v160006Ev, symObjAddr: 0xC0C, symBinAddr: 0x1000044F4, symSize: 0x18 }
  - { offsetInCU: 0xF866, offset: 0xF866, size: 0x8, addend: 0x0, symName: __ZNKSt3__111__wrap_iterIPiE4baseB7v160006Ev, symObjAddr: 0xC24, symBinAddr: 0x10000450C, symSize: 0x18 }
  - { offsetInCU: 0xF88C, offset: 0xF88C, size: 0x8, addend: 0x0, symName: __ZNSt3__119basic_istringstreamIcNS_11char_traitsIcEENS_9allocatorIcEEED2Ev, symObjAddr: 0xC3C, symBinAddr: 0x100004524, symSize: 0x64 }
  - { offsetInCU: 0xF8C6, offset: 0xF8C6, size: 0x8, addend: 0x0, symName: __ZTv0_n24_NSt3__119basic_istringstreamIcNS_11char_traitsIcEENS_9allocatorIcEEED1Ev, symObjAddr: 0xCA0, symBinAddr: 0x100004588, symSize: 0x28 }
  - { offsetInCU: 0xF8E2, offset: 0xF8E2, size: 0x8, addend: 0x0, symName: __ZNSt3__115basic_stringbufIcNS_11char_traitsIcEENS_9allocatorIcEEED1Ev, symObjAddr: 0xCC8, symBinAddr: 0x1000045B0, symSize: 0x2C }
  - { offsetInCU: 0xF90F, offset: 0xF90F, size: 0x8, addend: 0x0, symName: __ZNSt3__115basic_stringbufIcNS_11char_traitsIcEENS_9allocatorIcEEED2Ev, symObjAddr: 0xCF4, symBinAddr: 0x1000045DC, symSize: 0x48 }
  - { offsetInCU: 0xF93C, offset: 0xF93C, size: 0x8, addend: 0x0, symName: __ZNKSt3__112basic_stringIcNS_11char_traitsIcEENS_9allocatorIcEEE4sizeB7v160006Ev, symObjAddr: 0xD3C, symBinAddr: 0x100004624, symSize: 0x54 }
  - { offsetInCU: 0xF962, offset: 0xF962, size: 0x8, addend: 0x0, symName: __ZNKSt3__112basic_stringIcNS_11char_traitsIcEENS_9allocatorIcEEE9__is_longB7v160006Ev, symObjAddr: 0xD90, symBinAddr: 0x100004678, symSize: 0x38 }
  - { offsetInCU: 0xF988, offset: 0xF988, size: 0x8, addend: 0x0, symName: __ZNKSt3__112basic_stringIcNS_11char_traitsIcEENS_9allocatorIcEEE15__get_long_sizeB7v160006Ev, symObjAddr: 0xDC8, symBinAddr: 0x1000046B0, symSize: 0x28 }
  - { offsetInCU: 0xF9AE, offset: 0xF9AE, size: 0x8, addend: 0x0, symName: __ZNKSt3__112basic_stringIcNS_11char_traitsIcEENS_9allocatorIcEEE16__get_short_sizeB7v160006Ev, symObjAddr: 0xDF0, symBinAddr: 0x1000046D8, symSize: 0x34 }
  - { offsetInCU: 0xF9D4, offset: 0xF9D4, size: 0x8, addend: 0x0, symName: __ZNKSt3__117__compressed_pairINS_12basic_stringIcNS_11char_traitsIcEENS_9allocatorIcEEE5__repES5_E5firstB7v160006Ev, symObjAddr: 0xE24, symBinAddr: 0x10000470C, symSize: 0x24 }
  - { offsetInCU: 0xF9FA, offset: 0xF9FA, size: 0x8, addend: 0x0, symName: __ZNKSt3__122__compressed_pair_elemINS_12basic_stringIcNS_11char_traitsIcEENS_9allocatorIcEEE5__repELi0ELb0EE5__getB7v160006Ev, symObjAddr: 0xE48, symBinAddr: 0x100004730, symSize: 0x14 }
  - { offsetInCU: 0xFA20, offset: 0xFA20, size: 0x8, addend: 0x0, symName: __ZNSt3__112basic_stringIcNS_11char_traitsIcEENS_9allocatorIcEEEC2B7v160006IDnEEPKc, symObjAddr: 0xE5C, symBinAddr: 0x100004744, symSize: 0x60 }
  - { offsetInCU: 0xFA63, offset: 0xFA63, size: 0x8, addend: 0x0, symName: __ZNSt3__117__compressed_pairINS_12basic_stringIcNS_11char_traitsIcEENS_9allocatorIcEEE5__repES5_EC1B7v160006INS_18__default_init_tagESA_EEOT_OT0_, symObjAddr: 0xEBC, symBinAddr: 0x1000047A4, symSize: 0x3C }
  - { offsetInCU: 0xFABB, offset: 0xFABB, size: 0x8, addend: 0x0, symName: __ZNSt3__111char_traitsIcE6lengthEPKc, symObjAddr: 0xEF8, symBinAddr: 0x1000047E0, symSize: 0x34 }
  - { offsetInCU: 0xFADE, offset: 0xFADE, size: 0x8, addend: 0x0, symName: __ZNSt3__117__compressed_pairINS_12basic_stringIcNS_11char_traitsIcEENS_9allocatorIcEEE5__repES5_EC2B7v160006INS_18__default_init_tagESA_EEOT_OT0_, symObjAddr: 0xF3C, symBinAddr: 0x100004824, symSize: 0x3C }
  - { offsetInCU: 0xFB36, offset: 0xFB36, size: 0x8, addend: 0x0, symName: __ZNSt3__122__compressed_pair_elemINS_12basic_stringIcNS_11char_traitsIcEENS_9allocatorIcEEE5__repELi0ELb0EEC2B7v160006ENS_18__default_init_tagE, symObjAddr: 0xF78, symBinAddr: 0x100004860, symSize: 0x14 }
  - { offsetInCU: 0xFB6B, offset: 0xFB6B, size: 0x8, addend: 0x0, symName: __ZNSt3__122__compressed_pair_elemINS_9allocatorIcEELi1ELb1EEC2B7v160006ENS_18__default_init_tagE, symObjAddr: 0xF8C, symBinAddr: 0x100004874, symSize: 0x2C }
  - { offsetInCU: 0xFBA0, offset: 0xFBA0, size: 0x8, addend: 0x0, symName: __ZNSt3__19allocatorIcEC2B7v160006Ev, symObjAddr: 0xFB8, symBinAddr: 0x1000048A0, symSize: 0x2C }
  - { offsetInCU: 0xFBCA, offset: 0xFBCA, size: 0x8, addend: 0x0, symName: __ZNSt3__116__non_trivial_ifILb1ENS_9allocatorIcEEEC2B7v160006Ev, symObjAddr: 0xFE4, symBinAddr: 0x1000048CC, symSize: 0x14 }
  - { offsetInCU: 0xFBF4, offset: 0xFBF4, size: 0x8, addend: 0x0, symName: __ZNSt3__16vectorI4FormNS_9allocatorIS1_EEEC2B7v160006Ev, symObjAddr: 0x1028, symBinAddr: 0x100004910, symSize: 0x58 }
  - { offsetInCU: 0xFC23, offset: 0xFC23, size: 0x8, addend: 0x0, symName: __ZNSt3__117__compressed_pairIP4FormNS_9allocatorIS1_EEEC1B7v160006IDnNS_18__default_init_tagEEEOT_OT0_, symObjAddr: 0x1080, symBinAddr: 0x100004968, symSize: 0x3C }
  - { offsetInCU: 0xFC7B, offset: 0xFC7B, size: 0x8, addend: 0x0, symName: __ZNSt3__117__compressed_pairIP4FormNS_9allocatorIS1_EEEC2B7v160006IDnNS_18__default_init_tagEEEOT_OT0_, symObjAddr: 0x10CC, symBinAddr: 0x1000049B4, symSize: 0x40 }
  - { offsetInCU: 0xFCD3, offset: 0xFCD3, size: 0x8, addend: 0x0, symName: __ZNSt3__122__compressed_pair_elemIP4FormLi0ELb0EEC2B7v160006IDnvEEOT_, symObjAddr: 0x110C, symBinAddr: 0x1000049F4, symSize: 0x1C }
  - { offsetInCU: 0xFD15, offset: 0xFD15, size: 0x8, addend: 0x0, symName: __ZNSt3__122__compressed_pair_elemINS_9allocatorI4FormEELi1ELb1EEC2B7v160006ENS_18__default_init_tagE, symObjAddr: 0x1128, symBinAddr: 0x100004A10, symSize: 0x2C }
  - { offsetInCU: 0xFD4A, offset: 0xFD4A, size: 0x8, addend: 0x0, symName: __ZNSt3__19allocatorI4FormEC2B7v160006Ev, symObjAddr: 0x1154, symBinAddr: 0x100004A3C, symSize: 0x2C }
  - { offsetInCU: 0xFD74, offset: 0xFD74, size: 0x8, addend: 0x0, symName: __ZNSt3__116__non_trivial_ifILb1ENS_9allocatorI4FormEEEC2B7v160006Ev, symObjAddr: 0x1180, symBinAddr: 0x100004A68, symSize: 0x14 }
  - { offsetInCU: 0xFD9E, offset: 0xFD9E, size: 0x8, addend: 0x0, symName: __ZNSt3__16vectorI4FormNS_9allocatorIS1_EEED2B7v160006Ev, symObjAddr: 0x1194, symBinAddr: 0x100004A7C, symSize: 0x44 }
  - { offsetInCU: 0xFDC8, offset: 0xFDC8, size: 0x8, addend: 0x0, symName: __ZNSt3__16vectorI4FormNS_9allocatorIS1_EEE16__destroy_vectorC1ERS4_, symObjAddr: 0x11D8, symBinAddr: 0x100004AC0, symSize: 0x34 }
  - { offsetInCU: 0xFE01, offset: 0xFE01, size: 0x8, addend: 0x0, symName: __ZNSt3__16vectorI4FormNS_9allocatorIS1_EEE16__destroy_vectorclB7v160006Ev, symObjAddr: 0x120C, symBinAddr: 0x100004AF4, symSize: 0x9C }
  - { offsetInCU: 0xFE27, offset: 0xFE27, size: 0x8, addend: 0x0, symName: __ZNSt3__16vectorI4FormNS_9allocatorIS1_EEE16__destroy_vectorC2ERS4_, symObjAddr: 0x12A8, symBinAddr: 0x100004B90, symSize: 0x20 }
  - { offsetInCU: 0xFE60, offset: 0xFE60, size: 0x8, addend: 0x0, symName: __ZNKSt3__16vectorI4FormNS_9allocatorIS1_EEE17__annotate_deleteB7v160006Ev, symObjAddr: 0x12C8, symBinAddr: 0x100004BB0, symSize: 0xB8 }
  - { offsetInCU: 0xFE86, offset: 0xFE86, size: 0x8, addend: 0x0, symName: __ZNSt3__16vectorI4FormNS_9allocatorIS1_EEE7__clearB7v160006Ev, symObjAddr: 0x1390, symBinAddr: 0x100004C78, symSize: 0x28 }
  - { offsetInCU: 0xFEAC, offset: 0xFEAC, size: 0x8, addend: 0x0, symName: __ZNSt3__116allocator_traitsINS_9allocatorI4FormEEE10deallocateB7v160006ERS3_PS2_m, symObjAddr: 0x13B8, symBinAddr: 0x100004CA0, symSize: 0x34 }
  - { offsetInCU: 0xFEEE, offset: 0xFEEE, size: 0x8, addend: 0x0, symName: __ZNSt3__16vectorI4FormNS_9allocatorIS1_EEE7__allocB7v160006Ev, symObjAddr: 0x13EC, symBinAddr: 0x100004CD4, symSize: 0x28 }
  - { offsetInCU: 0xFF14, offset: 0xFF14, size: 0x8, addend: 0x0, symName: __ZNKSt3__16vectorI4FormNS_9allocatorIS1_EEE8capacityB7v160006Ev, symObjAddr: 0x1414, symBinAddr: 0x100004CFC, symSize: 0x40 }
  - { offsetInCU: 0xFF3A, offset: 0xFF3A, size: 0x8, addend: 0x0, symName: __ZNKSt3__16vectorI4FormNS_9allocatorIS1_EEE31__annotate_contiguous_containerB7v160006EPKvS6_S6_S6_, symObjAddr: 0x1454, symBinAddr: 0x100004D3C, symSize: 0x20 }
  - { offsetInCU: 0xFF8C, offset: 0xFF8C, size: 0x8, addend: 0x0, symName: __ZNKSt3__16vectorI4FormNS_9allocatorIS1_EEE4dataB7v160006Ev, symObjAddr: 0x1474, symBinAddr: 0x100004D5C, symSize: 0x28 }
  - { offsetInCU: 0xFFB2, offset: 0xFFB2, size: 0x8, addend: 0x0, symName: __ZNSt3__16vectorI4FormNS_9allocatorIS1_EEE22__base_destruct_at_endB7v160006EPS1_, symObjAddr: 0x14B0, symBinAddr: 0x100004D98, symSize: 0x8C }
  - { offsetInCU: 0xFFF6, offset: 0xFFF6, size: 0x8, addend: 0x0, symName: __ZNSt3__116allocator_traitsINS_9allocatorI4FormEEE7destroyB7v160006IS2_vEEvRS3_PT_, symObjAddr: 0x153C, symBinAddr: 0x100004E24, symSize: 0x2C }
  - { offsetInCU: 0x10033, offset: 0x10033, size: 0x8, addend: 0x0, symName: __ZNSt3__19allocatorI4FormE7destroyB7v160006EPS1_, symObjAddr: 0x1568, symBinAddr: 0x100004E50, symSize: 0x14 }
  - { offsetInCU: 0x10067, offset: 0x10067, size: 0x8, addend: 0x0, symName: __ZNSt3__19allocatorI4FormE10deallocateB7v160006EPS1_m, symObjAddr: 0x157C, symBinAddr: 0x100004E64, symSize: 0x40 }
  - { offsetInCU: 0x100A9, offset: 0x100A9, size: 0x8, addend: 0x0, symName: __ZNSt3__117__compressed_pairIP4FormNS_9allocatorIS1_EEE6secondB7v160006Ev, symObjAddr: 0x1638, symBinAddr: 0x100004F20, symSize: 0x24 }
  - { offsetInCU: 0x100CF, offset: 0x100CF, size: 0x8, addend: 0x0, symName: __ZNSt3__122__compressed_pair_elemINS_9allocatorI4FormEELi1ELb1EE5__getB7v160006Ev, symObjAddr: 0x165C, symBinAddr: 0x100004F44, symSize: 0x14 }
  - { offsetInCU: 0x100F5, offset: 0x100F5, size: 0x8, addend: 0x0, symName: __ZNKSt3__16vectorI4FormNS_9allocatorIS1_EEE9__end_capB7v160006Ev, symObjAddr: 0x1670, symBinAddr: 0x100004F58, symSize: 0x28 }
  - { offsetInCU: 0x1011B, offset: 0x1011B, size: 0x8, addend: 0x0, symName: __ZNKSt3__117__compressed_pairIP4FormNS_9allocatorIS1_EEE5firstB7v160006Ev, symObjAddr: 0x1698, symBinAddr: 0x100004F80, symSize: 0x24 }
  - { offsetInCU: 0x10141, offset: 0x10141, size: 0x8, addend: 0x0, symName: __ZNKSt3__122__compressed_pair_elemIP4FormLi0ELb0EE5__getB7v160006Ev, symObjAddr: 0x16BC, symBinAddr: 0x100004FA4, symSize: 0x14 }
  - { offsetInCU: 0x10167, offset: 0x10167, size: 0x8, addend: 0x0, symName: __ZNSt3__16vectorIiNS_9allocatorIiEEEC2B7v160006Ev, symObjAddr: 0x16D0, symBinAddr: 0x100004FB8, symSize: 0x58 }
  - { offsetInCU: 0x10191, offset: 0x10191, size: 0x8, addend: 0x0, symName: __ZNSt3__117__compressed_pairIPiNS_9allocatorIiEEEC1B7v160006IDnNS_18__default_init_tagEEEOT_OT0_, symObjAddr: 0x1728, symBinAddr: 0x100005010, symSize: 0x3C }
  - { offsetInCU: 0x101E9, offset: 0x101E9, size: 0x8, addend: 0x0, symName: __ZNSt3__117__compressed_pairIPiNS_9allocatorIiEEEC2B7v160006IDnNS_18__default_init_tagEEEOT_OT0_, symObjAddr: 0x1774, symBinAddr: 0x10000505C, symSize: 0x40 }
  - { offsetInCU: 0x10241, offset: 0x10241, size: 0x8, addend: 0x0, symName: __ZNSt3__122__compressed_pair_elemIPiLi0ELb0EEC2B7v160006IDnvEEOT_, symObjAddr: 0x17B4, symBinAddr: 0x10000509C, symSize: 0x1C }
  - { offsetInCU: 0x10283, offset: 0x10283, size: 0x8, addend: 0x0, symName: __ZNSt3__122__compressed_pair_elemINS_9allocatorIiEELi1ELb1EEC2B7v160006ENS_18__default_init_tagE, symObjAddr: 0x17D0, symBinAddr: 0x1000050B8, symSize: 0x2C }
  - { offsetInCU: 0x102B8, offset: 0x102B8, size: 0x8, addend: 0x0, symName: __ZNSt3__19allocatorIiEC2B7v160006Ev, symObjAddr: 0x17FC, symBinAddr: 0x1000050E4, symSize: 0x2C }
  - { offsetInCU: 0x102E2, offset: 0x102E2, size: 0x8, addend: 0x0, symName: __ZNSt3__116__non_trivial_ifILb1ENS_9allocatorIiEEEC2B7v160006Ev, symObjAddr: 0x1828, symBinAddr: 0x100005110, symSize: 0x14 }
  - { offsetInCU: 0x1030C, offset: 0x1030C, size: 0x8, addend: 0x0, symName: __ZNSt3__16vectorIiNS_9allocatorIiEEED2B7v160006Ev, symObjAddr: 0x183C, symBinAddr: 0x100005124, symSize: 0x44 }
  - { offsetInCU: 0x10336, offset: 0x10336, size: 0x8, addend: 0x0, symName: __ZNSt3__16vectorIiNS_9allocatorIiEEE16__destroy_vectorC1ERS3_, symObjAddr: 0x1880, symBinAddr: 0x100005168, symSize: 0x34 }
  - { offsetInCU: 0x1036F, offset: 0x1036F, size: 0x8, addend: 0x0, symName: __ZNSt3__16vectorIiNS_9allocatorIiEEE16__destroy_vectorclB7v160006Ev, symObjAddr: 0x18B4, symBinAddr: 0x10000519C, symSize: 0x9C }
  - { offsetInCU: 0x10395, offset: 0x10395, size: 0x8, addend: 0x0, symName: __ZNSt3__16vectorIiNS_9allocatorIiEEE16__destroy_vectorC2ERS3_, symObjAddr: 0x1950, symBinAddr: 0x100005238, symSize: 0x20 }
  - { offsetInCU: 0x103CE, offset: 0x103CE, size: 0x8, addend: 0x0, symName: __ZNKSt3__16vectorIiNS_9allocatorIiEEE17__annotate_deleteB7v160006Ev, symObjAddr: 0x1970, symBinAddr: 0x100005258, symSize: 0xB8 }
  - { offsetInCU: 0x103F4, offset: 0x103F4, size: 0x8, addend: 0x0, symName: __ZNSt3__16vectorIiNS_9allocatorIiEEE7__clearB7v160006Ev, symObjAddr: 0x1A38, symBinAddr: 0x100005320, symSize: 0x28 }
  - { offsetInCU: 0x1041A, offset: 0x1041A, size: 0x8, addend: 0x0, symName: __ZNSt3__116allocator_traitsINS_9allocatorIiEEE10deallocateB7v160006ERS2_Pim, symObjAddr: 0x1A60, symBinAddr: 0x100005348, symSize: 0x34 }
  - { offsetInCU: 0x1045C, offset: 0x1045C, size: 0x8, addend: 0x0, symName: __ZNSt3__16vectorIiNS_9allocatorIiEEE7__allocB7v160006Ev, symObjAddr: 0x1A94, symBinAddr: 0x10000537C, symSize: 0x28 }
  - { offsetInCU: 0x10482, offset: 0x10482, size: 0x8, addend: 0x0, symName: __ZNKSt3__16vectorIiNS_9allocatorIiEEE8capacityB7v160006Ev, symObjAddr: 0x1ABC, symBinAddr: 0x1000053A4, symSize: 0x40 }
  - { offsetInCU: 0x104A8, offset: 0x104A8, size: 0x8, addend: 0x0, symName: __ZNKSt3__16vectorIiNS_9allocatorIiEEE31__annotate_contiguous_containerB7v160006EPKvS5_S5_S5_, symObjAddr: 0x1AFC, symBinAddr: 0x1000053E4, symSize: 0x20 }
  - { offsetInCU: 0x104FA, offset: 0x104FA, size: 0x8, addend: 0x0, symName: __ZNKSt3__16vectorIiNS_9allocatorIiEEE4dataB7v160006Ev, symObjAddr: 0x1B1C, symBinAddr: 0x100005404, symSize: 0x28 }
  - { offsetInCU: 0x10520, offset: 0x10520, size: 0x8, addend: 0x0, symName: __ZNKSt3__16vectorIiNS_9allocatorIiEEE4sizeB7v160006Ev, symObjAddr: 0x1B44, symBinAddr: 0x10000542C, symSize: 0x28 }
  - { offsetInCU: 0x10546, offset: 0x10546, size: 0x8, addend: 0x0, symName: __ZNSt3__16vectorIiNS_9allocatorIiEEE22__base_destruct_at_endB7v160006EPi, symObjAddr: 0x1B80, symBinAddr: 0x100005468, symSize: 0x8C }
  - { offsetInCU: 0x1058A, offset: 0x1058A, size: 0x8, addend: 0x0, symName: __ZNSt3__116allocator_traitsINS_9allocatorIiEEE7destroyB7v160006IivEEvRS2_PT_, symObjAddr: 0x1C0C, symBinAddr: 0x1000054F4, symSize: 0x2C }
  - { offsetInCU: 0x105C7, offset: 0x105C7, size: 0x8, addend: 0x0, symName: __ZNSt3__19allocatorIiE7destroyB7v160006EPi, symObjAddr: 0x1C38, symBinAddr: 0x100005520, symSize: 0x14 }
  - { offsetInCU: 0x105FB, offset: 0x105FB, size: 0x8, addend: 0x0, symName: __ZNSt3__19allocatorIiE10deallocateB7v160006EPim, symObjAddr: 0x1C4C, symBinAddr: 0x100005534, symSize: 0x40 }
  - { offsetInCU: 0x1063D, offset: 0x1063D, size: 0x8, addend: 0x0, symName: __ZNSt3__117__compressed_pairIPiNS_9allocatorIiEEE6secondB7v160006Ev, symObjAddr: 0x1C8C, symBinAddr: 0x100005574, symSize: 0x24 }
  - { offsetInCU: 0x10663, offset: 0x10663, size: 0x8, addend: 0x0, symName: __ZNSt3__122__compressed_pair_elemINS_9allocatorIiEELi1ELb1EE5__getB7v160006Ev, symObjAddr: 0x1CB0, symBinAddr: 0x100005598, symSize: 0x14 }
  - { offsetInCU: 0x10689, offset: 0x10689, size: 0x8, addend: 0x0, symName: __ZNKSt3__16vectorIiNS_9allocatorIiEEE9__end_capB7v160006Ev, symObjAddr: 0x1CC4, symBinAddr: 0x1000055AC, symSize: 0x28 }
  - { offsetInCU: 0x106AF, offset: 0x106AF, size: 0x8, addend: 0x0, symName: __ZNKSt3__117__compressed_pairIPiNS_9allocatorIiEEE5firstB7v160006Ev, symObjAddr: 0x1CEC, symBinAddr: 0x1000055D4, symSize: 0x24 }
  - { offsetInCU: 0x106D5, offset: 0x106D5, size: 0x8, addend: 0x0, symName: __ZNKSt3__122__compressed_pair_elemIPiLi0ELb0EE5__getB7v160006Ev, symObjAddr: 0x1D10, symBinAddr: 0x1000055F8, symSize: 0x14 }
  - { offsetInCU: 0x106FB, offset: 0x106FB, size: 0x8, addend: 0x0, symName: __ZNKSt3__19basic_iosIcNS_11char_traitsIcEEE5widenB7v160006Ec, symObjAddr: 0x1D24, symBinAddr: 0x10000560C, symSize: 0x84 }
  - { offsetInCU: 0x10769, offset: 0x10769, size: 0x8, addend: 0x0, symName: __ZNKSt3__15ctypeIcE5widenB7v160006Ec, symObjAddr: 0x1DD4, symBinAddr: 0x1000056BC, symSize: 0x38 }
  - { offsetInCU: 0x1079E, offset: 0x1079E, size: 0x8, addend: 0x0, symName: __ZNSt3__16vectorI4FormNS_9allocatorIS1_EEE11__make_iterB7v160006EPS1_, symObjAddr: 0x1E0C, symBinAddr: 0x1000056F4, symSize: 0x34 }
  - { offsetInCU: 0x107D3, offset: 0x107D3, size: 0x8, addend: 0x0, symName: __ZNSt3__111__wrap_iterIP4FormEC1B7v160006EPKvS2_, symObjAddr: 0x1E40, symBinAddr: 0x100005728, symSize: 0x3C }
  - { offsetInCU: 0x10819, offset: 0x10819, size: 0x8, addend: 0x0, symName: __ZNSt3__111__wrap_iterIP4FormEC2B7v160006EPKvS2_, symObjAddr: 0x1E7C, symBinAddr: 0x100005764, symSize: 0x24 }
  - { offsetInCU: 0x1087D, offset: 0x1087D, size: 0x8, addend: 0x0, symName: __ZNKSt3__113basic_ostreamIcNS_11char_traitsIcEEE6sentrycvbB7v160006Ev, symObjAddr: 0x208C, symBinAddr: 0x100005974, symSize: 0x1C }
  - { offsetInCU: 0x108A3, offset: 0x108A3, size: 0x8, addend: 0x0, symName: __ZNSt3__119ostreambuf_iteratorIcNS_11char_traitsIcEEEC1B7v160006ERNS_13basic_ostreamIcS2_EE, symObjAddr: 0x22E8, symBinAddr: 0x100005BD0, symSize: 0x34 }
  - { offsetInCU: 0x108DB, offset: 0x108DB, size: 0x8, addend: 0x0, symName: __ZNKSt3__18ios_base5flagsB7v160006Ev, symObjAddr: 0x231C, symBinAddr: 0x100005C04, symSize: 0x18 }
  - { offsetInCU: 0x10903, offset: 0x10903, size: 0x8, addend: 0x0, symName: __ZNKSt3__19basic_iosIcNS_11char_traitsIcEEE4fillB7v160006Ev, symObjAddr: 0x2334, symBinAddr: 0x100005C1C, symSize: 0x64 }
  - { offsetInCU: 0x1092B, offset: 0x1092B, size: 0x8, addend: 0x0, symName: __ZNKSt3__119ostreambuf_iteratorIcNS_11char_traitsIcEEE6failedB7v160006Ev, symObjAddr: 0x2398, symBinAddr: 0x100005C80, symSize: 0x24 }
  - { offsetInCU: 0x10951, offset: 0x10951, size: 0x8, addend: 0x0, symName: __ZNSt3__19basic_iosIcNS_11char_traitsIcEEE8setstateB7v160006Ej, symObjAddr: 0x23BC, symBinAddr: 0x100005CA4, symSize: 0x2C }
  - { offsetInCU: 0x10986, offset: 0x10986, size: 0x8, addend: 0x0, symName: __ZNKSt3__18ios_base5widthB7v160006Ev, symObjAddr: 0x23E8, symBinAddr: 0x100005CD0, symSize: 0x18 }
  - { offsetInCU: 0x109AE, offset: 0x109AE, size: 0x8, addend: 0x0, symName: __ZNSt3__115basic_streambufIcNS_11char_traitsIcEEE5sputnB7v160006EPKcl, symObjAddr: 0x2400, symBinAddr: 0x100005CE8, symSize: 0x3C }
  - { offsetInCU: 0x109F0, offset: 0x109F0, size: 0x8, addend: 0x0, symName: __ZNSt3__112basic_stringIcNS_11char_traitsIcEENS_9allocatorIcEEEC1B7v160006Emc, symObjAddr: 0x243C, symBinAddr: 0x100005D24, symSize: 0x3C }
  - { offsetInCU: 0x10A38, offset: 0x10A38, size: 0x8, addend: 0x0, symName: __ZNKSt3__112basic_stringIcNS_11char_traitsIcEENS_9allocatorIcEEE4dataB7v160006Ev, symObjAddr: 0x2478, symBinAddr: 0x100005D60, symSize: 0x28 }
  - { offsetInCU: 0x10A5E, offset: 0x10A5E, size: 0x8, addend: 0x0, symName: __ZNSt3__18ios_base5widthB7v160006El, symObjAddr: 0x24A0, symBinAddr: 0x100005D88, symSize: 0x2C }
  - { offsetInCU: 0x10AA4, offset: 0x10AA4, size: 0x8, addend: 0x0, symName: __ZNSt3__112basic_stringIcNS_11char_traitsIcEENS_9allocatorIcEEEC2B7v160006Emc, symObjAddr: 0x24CC, symBinAddr: 0x100005DB4, symSize: 0x54 }
  - { offsetInCU: 0x10AEC, offset: 0x10AEC, size: 0x8, addend: 0x0, symName: __ZNKSt3__112basic_stringIcNS_11char_traitsIcEENS_9allocatorIcEEE13__get_pointerB7v160006Ev, symObjAddr: 0x2534, symBinAddr: 0x100005E1C, symSize: 0x54 }
  - { offsetInCU: 0x10B12, offset: 0x10B12, size: 0x8, addend: 0x0, symName: __ZNKSt3__112basic_stringIcNS_11char_traitsIcEENS_9allocatorIcEEE18__get_long_pointerB7v160006Ev, symObjAddr: 0x2588, symBinAddr: 0x100005E70, symSize: 0x28 }
  - { offsetInCU: 0x10B38, offset: 0x10B38, size: 0x8, addend: 0x0, symName: __ZNKSt3__112basic_stringIcNS_11char_traitsIcEENS_9allocatorIcEEE19__get_short_pointerB7v160006Ev, symObjAddr: 0x25B0, symBinAddr: 0x100005E98, symSize: 0x28 }
  - { offsetInCU: 0x10B5E, offset: 0x10B5E, size: 0x8, addend: 0x0, symName: __ZNSt3__114pointer_traitsIPKcE10pointer_toB7v160006ERS1_, symObjAddr: 0x25D8, symBinAddr: 0x100005EC0, symSize: 0x14 }
  - { offsetInCU: 0x10B81, offset: 0x10B81, size: 0x8, addend: 0x0, symName: __ZNSt3__119ostreambuf_iteratorIcNS_11char_traitsIcEEEC2B7v160006ERNS_13basic_ostreamIcS2_EE, symObjAddr: 0x25EC, symBinAddr: 0x100005ED4, symSize: 0x54 }
  - { offsetInCU: 0x10BB9, offset: 0x10BB9, size: 0x8, addend: 0x0, symName: __ZNKSt3__19basic_iosIcNS_11char_traitsIcEEE5rdbufB7v160006Ev, symObjAddr: 0x2640, symBinAddr: 0x100005F28, symSize: 0x24 }
  - { offsetInCU: 0x10BE1, offset: 0x10BE1, size: 0x8, addend: 0x0, symName: __ZNKSt3__18ios_base5rdbufB7v160006Ev, symObjAddr: 0x2664, symBinAddr: 0x100005F4C, symSize: 0x18 }
  - { offsetInCU: 0x10C07, offset: 0x10C07, size: 0x8, addend: 0x0, symName: __ZNSt3__111char_traitsIcE11eq_int_typeEii, symObjAddr: 0x267C, symBinAddr: 0x100005F64, symSize: 0x28 }
  - { offsetInCU: 0x10C38, offset: 0x10C38, size: 0x8, addend: 0x0, symName: __ZNSt3__111char_traitsIcE3eofEv, symObjAddr: 0x26A4, symBinAddr: 0x100005F8C, symSize: 0x8 }
  - { offsetInCU: 0x10C4C, offset: 0x10C4C, size: 0x8, addend: 0x0, symName: __ZNSt3__18ios_base8setstateB7v160006Ej, symObjAddr: 0x26AC, symBinAddr: 0x100005F94, symSize: 0x34 }
  - { offsetInCU: 0x10C83, offset: 0x10C83, size: 0x8, addend: 0x0, symName: __ZNSt3__16vectorIiNS_9allocatorIiEEE11__make_iterB7v160006EPi, symObjAddr: 0x26E0, symBinAddr: 0x100005FC8, symSize: 0x34 }
  - { offsetInCU: 0x10CB8, offset: 0x10CB8, size: 0x8, addend: 0x0, symName: __ZNSt3__111__wrap_iterIPiEC1B7v160006EPKvS1_, symObjAddr: 0x2714, symBinAddr: 0x100005FFC, symSize: 0x3C }
  - { offsetInCU: 0x10CFE, offset: 0x10CFE, size: 0x8, addend: 0x0, symName: __ZNSt3__111__wrap_iterIPiEC2B7v160006EPKvS1_, symObjAddr: 0x2750, symBinAddr: 0x100006038, symSize: 0x24 }
  - { offsetInCU: 0x10D44, offset: 0x10D44, size: 0x8, addend: 0x0, symName: __ZNKSt3__111__wrap_iterIPiEdeB7v160006Ev, symObjAddr: 0x27A8, symBinAddr: 0x100006090, symSize: 0x18 }
  - { offsetInCU: 0x10D6A, offset: 0x10D6A, size: 0x8, addend: 0x0, symName: __ZNSt3__111__wrap_iterIPiEppB7v160006Ev, symObjAddr: 0x27C0, symBinAddr: 0x1000060A8, symSize: 0x20 }
  - { offsetInCU: 0x10D90, offset: 0x10D90, size: 0x8, addend: 0x0, symName: __ZNSt3__16vectorIiNS_9allocatorIiEEE9__end_capB7v160006Ev, symObjAddr: 0x27E0, symBinAddr: 0x1000060C8, symSize: 0x28 }
  - { offsetInCU: 0x10DB6, offset: 0x10DB6, size: 0x8, addend: 0x0, symName: __ZNSt3__16vectorIiNS_9allocatorIiEEE22__construct_one_at_endB7v160006IJRKiEEEvDpOT_, symObjAddr: 0x2808, symBinAddr: 0x1000060F0, symSize: 0x90 }
  - { offsetInCU: 0x10E05, offset: 0x10E05, size: 0x8, addend: 0x0, symName: __ZNSt3__16vectorIiNS_9allocatorIiEEE21__push_back_slow_pathIRKiEEvOT_, symObjAddr: 0x2898, symBinAddr: 0x100006180, symSize: 0xD8 }
  - { offsetInCU: 0x10E63, offset: 0x10E63, size: 0x8, addend: 0x0, symName: __ZNSt3__117__compressed_pairIPiNS_9allocatorIiEEE5firstB7v160006Ev, symObjAddr: 0x2970, symBinAddr: 0x100006258, symSize: 0x24 }
  - { offsetInCU: 0x10E89, offset: 0x10E89, size: 0x8, addend: 0x0, symName: __ZNSt3__122__compressed_pair_elemIPiLi0ELb0EE5__getB7v160006Ev, symObjAddr: 0x2994, symBinAddr: 0x10000627C, symSize: 0x14 }
  - { offsetInCU: 0x10EC8, offset: 0x10EC8, size: 0x8, addend: 0x0, symName: __ZNSt3__16vectorIiNS_9allocatorIiEEE21_ConstructTransactionC1B7v160006ERS3_m, symObjAddr: 0x29A8, symBinAddr: 0x100006290, symSize: 0x3C }
  - { offsetInCU: 0x10F10, offset: 0x10F10, size: 0x8, addend: 0x0, symName: __ZNSt3__116allocator_traitsINS_9allocatorIiEEE9constructB7v160006IiJRKiEvEEvRS2_PT_DpOT0_, symObjAddr: 0x29E4, symBinAddr: 0x1000062CC, symSize: 0x34 }
  - { offsetInCU: 0x10F67, offset: 0x10F67, size: 0x8, addend: 0x0, symName: __ZNSt3__16vectorIiNS_9allocatorIiEEE21_ConstructTransactionD1B7v160006Ev, symObjAddr: 0x2A18, symBinAddr: 0x100006300, symSize: 0x2C }
  - { offsetInCU: 0x10F91, offset: 0x10F91, size: 0x8, addend: 0x0, symName: __ZNSt3__16vectorIiNS_9allocatorIiEEE21_ConstructTransactionC2B7v160006ERS3_m, symObjAddr: 0x2A44, symBinAddr: 0x10000632C, symSize: 0x44 }
  - { offsetInCU: 0x10FD9, offset: 0x10FD9, size: 0x8, addend: 0x0, symName: __ZNSt3__19allocatorIiE9constructB7v160006IiJRKiEEEvPT_DpOT0_, symObjAddr: 0x2A88, symBinAddr: 0x100006370, symSize: 0x28 }
  - { offsetInCU: 0x1102F, offset: 0x1102F, size: 0x8, addend: 0x0, symName: __ZNSt3__16vectorIiNS_9allocatorIiEEE21_ConstructTransactionD2B7v160006Ev, symObjAddr: 0x2AB0, symBinAddr: 0x100006398, symSize: 0x20 }
  - { offsetInCU: 0x11059, offset: 0x11059, size: 0x8, addend: 0x0, symName: __ZNKSt3__16vectorIiNS_9allocatorIiEEE11__recommendB7v160006Em, symObjAddr: 0x2AD0, symBinAddr: 0x1000063B8, symSize: 0xB4 }
  - { offsetInCU: 0x110AE, offset: 0x110AE, size: 0x8, addend: 0x0, symName: __ZNSt3__114__split_bufferIiRNS_9allocatorIiEEEC1EmmS3_, symObjAddr: 0x2B84, symBinAddr: 0x10000646C, symSize: 0x44 }
  - { offsetInCU: 0x11104, offset: 0x11104, size: 0x8, addend: 0x0, symName: __ZNSt3__114__split_bufferIiRNS_9allocatorIiEEED1Ev, symObjAddr: 0x2CE0, symBinAddr: 0x1000065C8, symSize: 0x2C }
  - { offsetInCU: 0x11130, offset: 0x11130, size: 0x8, addend: 0x0, symName: __ZNKSt3__16vectorIiNS_9allocatorIiEEE8max_sizeEv, symObjAddr: 0x2D0C, symBinAddr: 0x1000065F4, symSize: 0x60 }
  - { offsetInCU: 0x11158, offset: 0x11158, size: 0x8, addend: 0x0, symName: __ZNKSt3__16vectorIiNS_9allocatorIiEEE20__throw_length_errorB7v160006Ev, symObjAddr: 0x2D6C, symBinAddr: 0x100006654, symSize: 0x1C }
  - { offsetInCU: 0x11188, offset: 0x11188, size: 0x8, addend: 0x0, symName: __ZNSt3__116allocator_traitsINS_9allocatorIiEEE8max_sizeB7v160006IS2_vEEmRKS2_, symObjAddr: 0x2DE0, symBinAddr: 0x1000066C8, symSize: 0x24 }
  - { offsetInCU: 0x111B6, offset: 0x111B6, size: 0x8, addend: 0x0, symName: __ZNKSt3__16vectorIiNS_9allocatorIiEEE7__allocB7v160006Ev, symObjAddr: 0x2E04, symBinAddr: 0x1000066EC, symSize: 0x28 }
  - { offsetInCU: 0x111DC, offset: 0x111DC, size: 0x8, addend: 0x0, symName: __ZNSt3__114numeric_limitsIlE3maxB7v160006Ev, symObjAddr: 0x2E2C, symBinAddr: 0x100006714, symSize: 0x14 }
  - { offsetInCU: 0x11204, offset: 0x11204, size: 0x8, addend: 0x0, symName: __ZNKSt3__16__lessImmEclB7v160006ERKmS3_, symObjAddr: 0x2E94, symBinAddr: 0x10000677C, symSize: 0x34 }
  - { offsetInCU: 0x11246, offset: 0x11246, size: 0x8, addend: 0x0, symName: __ZNKSt3__19allocatorIiE8max_sizeB7v160006Ev, symObjAddr: 0x2EC8, symBinAddr: 0x1000067B0, symSize: 0x14 }
  - { offsetInCU: 0x1126C, offset: 0x1126C, size: 0x8, addend: 0x0, symName: __ZNKSt3__117__compressed_pairIPiNS_9allocatorIiEEE6secondB7v160006Ev, symObjAddr: 0x2EDC, symBinAddr: 0x1000067C4, symSize: 0x24 }
  - { offsetInCU: 0x11292, offset: 0x11292, size: 0x8, addend: 0x0, symName: __ZNKSt3__122__compressed_pair_elemINS_9allocatorIiEELi1ELb1EE5__getB7v160006Ev, symObjAddr: 0x2F00, symBinAddr: 0x1000067E8, symSize: 0x14 }
  - { offsetInCU: 0x112B8, offset: 0x112B8, size: 0x8, addend: 0x0, symName: __ZNSt3__123__libcpp_numeric_limitsIlLb1EE3maxB7v160006Ev, symObjAddr: 0x2F14, symBinAddr: 0x1000067FC, symSize: 0x8 }
  - { offsetInCU: 0x112CC, offset: 0x112CC, size: 0x8, addend: 0x0, symName: __ZNSt12length_errorC1B7v160006EPKc, symObjAddr: 0x2F80, symBinAddr: 0x100006868, symSize: 0x34 }
  - { offsetInCU: 0x11304, offset: 0x11304, size: 0x8, addend: 0x0, symName: __ZNSt12length_errorC2B7v160006EPKc, symObjAddr: 0x2FB4, symBinAddr: 0x10000689C, symSize: 0x4C }
  - { offsetInCU: 0x1133C, offset: 0x1133C, size: 0x8, addend: 0x0, symName: __ZNSt3__114__split_bufferIiRNS_9allocatorIiEEEC2EmmS3_, symObjAddr: 0x3054, symBinAddr: 0x10000693C, symSize: 0xD4 }
  - { offsetInCU: 0x113AF, offset: 0x113AF, size: 0x8, addend: 0x0, symName: __ZNSt3__117__compressed_pairIPiRNS_9allocatorIiEEEC1B7v160006IDnS4_EEOT_OT0_, symObjAddr: 0x3128, symBinAddr: 0x100006A10, symSize: 0x3C }
  - { offsetInCU: 0x11407, offset: 0x11407, size: 0x8, addend: 0x0, symName: __ZNSt3__114__split_bufferIiRNS_9allocatorIiEEE7__allocB7v160006Ev, symObjAddr: 0x31A4, symBinAddr: 0x100006A8C, symSize: 0x28 }
  - { offsetInCU: 0x1142D, offset: 0x1142D, size: 0x8, addend: 0x0, symName: __ZNSt3__114__split_bufferIiRNS_9allocatorIiEEE9__end_capB7v160006Ev, symObjAddr: 0x31CC, symBinAddr: 0x100006AB4, symSize: 0x28 }
  - { offsetInCU: 0x11453, offset: 0x11453, size: 0x8, addend: 0x0, symName: __ZNSt3__117__compressed_pairIPiRNS_9allocatorIiEEEC2B7v160006IDnS4_EEOT_OT0_, symObjAddr: 0x31F4, symBinAddr: 0x100006ADC, symSize: 0x48 }
  - { offsetInCU: 0x114AB, offset: 0x114AB, size: 0x8, addend: 0x0, symName: __ZNSt3__122__compressed_pair_elemIRNS_9allocatorIiEELi1ELb0EEC2B7v160006IS3_vEEOT_, symObjAddr: 0x323C, symBinAddr: 0x100006B24, symSize: 0x20 }
  - { offsetInCU: 0x114ED, offset: 0x114ED, size: 0x8, addend: 0x0, symName: __ZNSt3__19allocatorIiE8allocateB7v160006Em, symObjAddr: 0x325C, symBinAddr: 0x100006B44, symSize: 0x58 }
  - { offsetInCU: 0x11521, offset: 0x11521, size: 0x8, addend: 0x0, symName: __ZNSt3__117__compressed_pairIPiRNS_9allocatorIiEEE6secondB7v160006Ev, symObjAddr: 0x3334, symBinAddr: 0x100006C1C, symSize: 0x28 }
  - { offsetInCU: 0x11547, offset: 0x11547, size: 0x8, addend: 0x0, symName: __ZNSt3__122__compressed_pair_elemIRNS_9allocatorIiEELi1ELb0EE5__getB7v160006Ev, symObjAddr: 0x335C, symBinAddr: 0x100006C44, symSize: 0x18 }
  - { offsetInCU: 0x1156D, offset: 0x1156D, size: 0x8, addend: 0x0, symName: __ZNSt3__117__compressed_pairIPiRNS_9allocatorIiEEE5firstB7v160006Ev, symObjAddr: 0x3374, symBinAddr: 0x100006C5C, symSize: 0x24 }
  - { offsetInCU: 0x11593, offset: 0x11593, size: 0x8, addend: 0x0, symName: __ZNSt3__116reverse_iteratorIPiEC1B7v160006ES1_, symObjAddr: 0x3410, symBinAddr: 0x100006CF8, symSize: 0x34 }
  - { offsetInCU: 0x115CB, offset: 0x115CB, size: 0x8, addend: 0x0, symName: __ZNKSt3__116reverse_iteratorIPiE4baseB7v160006Ev, symObjAddr: 0x3444, symBinAddr: 0x100006D2C, symSize: 0x18 }
  - { offsetInCU: 0x115F1, offset: 0x115F1, size: 0x8, addend: 0x0, symName: __ZNKSt3__16vectorIiNS_9allocatorIiEEE14__annotate_newB7v160006Em, symObjAddr: 0x3498, symBinAddr: 0x100006D80, symSize: 0xAC }
  - { offsetInCU: 0x11649, offset: 0x11649, size: 0x8, addend: 0x0, symName: __ZNKSt3__111__move_loopINS_17_ClassicAlgPolicyEEclB7v160006INS_16reverse_iteratorIPiEES6_S6_EENS_4pairIT_T1_EES8_T0_S9_, symObjAddr: 0x3844, symBinAddr: 0x10000712C, symSize: 0xA0 }
  - { offsetInCU: 0x116B9, offset: 0x116B9, size: 0x8, addend: 0x0, symName: __ZNSt3__18_IterOpsINS_17_ClassicAlgPolicyEE11__iter_moveB7v160006IRNS_16reverse_iteratorIPiEEEENS_9enable_ifIXsr12is_referenceIDTdeclsr3stdE7declvalIRT_EEEEE5valueEDTclsr3stdE4movedeclsr3stdE7declvalISA_EEEEE4typeEOS9_, symObjAddr: 0x3A78, symBinAddr: 0x100007360, symSize: 0x28 }
  - { offsetInCU: 0x116E5, offset: 0x116E5, size: 0x8, addend: 0x0, symName: __ZNKSt3__116reverse_iteratorIPiEdeB7v160006Ev, symObjAddr: 0x3AA0, symBinAddr: 0x100007388, symSize: 0x28 }
  - { offsetInCU: 0x11719, offset: 0x11719, size: 0x8, addend: 0x0, symName: __ZNSt3__116reverse_iteratorIPiEppB7v160006Ev, symObjAddr: 0x3AC8, symBinAddr: 0x1000073B0, symSize: 0x20 }
  - { offsetInCU: 0x1173F, offset: 0x1173F, size: 0x8, addend: 0x0, symName: __ZNSt3__18_IterOpsINS_17_ClassicAlgPolicyEE25__validate_iter_referenceB7v160006IRNS_16reverse_iteratorIPiEEEEvv, symObjAddr: 0x3AE8, symBinAddr: 0x1000073D0, symSize: 0x4 }
  - { offsetInCU: 0x1175D, offset: 0x1175D, size: 0x8, addend: 0x0, symName: __ZNSt3__118__unwrap_iter_implINS_16reverse_iteratorIPiEELb0EE8__unwrapB7v160006ES3_, symObjAddr: 0x3AEC, symBinAddr: 0x1000073D4, symSize: 0x24 }
  - { offsetInCU: 0x11785, offset: 0x11785, size: 0x8, addend: 0x0, symName: __ZNSt3__14pairINS_16reverse_iteratorIPiEES3_EC1B7v160006IS3_S3_LPv0EEEOT_OT0_, symObjAddr: 0x3B10, symBinAddr: 0x1000073F8, symSize: 0x3C }
  - { offsetInCU: 0x117E3, offset: 0x117E3, size: 0x8, addend: 0x0, symName: __ZNSt3__14pairINS_16reverse_iteratorIPiEES3_EC2B7v160006IS3_S3_LPv0EEEOT_OT0_, symObjAddr: 0x3B4C, symBinAddr: 0x100007434, symSize: 0x34 }
  - { offsetInCU: 0x11841, offset: 0x11841, size: 0x8, addend: 0x0, symName: __ZNSt3__118__unwrap_iter_implINS_16reverse_iteratorIPiEELb0EE8__rewrapB7v160006ES3_S3_, symObjAddr: 0x3B80, symBinAddr: 0x100007468, symSize: 0x2C }
  - { offsetInCU: 0x1186F, offset: 0x1186F, size: 0x8, addend: 0x0, symName: __ZNSt3__116reverse_iteratorIPiEC2B7v160006ES1_, symObjAddr: 0x3BAC, symBinAddr: 0x100007494, symSize: 0x28 }
  - { offsetInCU: 0x118A7, offset: 0x118A7, size: 0x8, addend: 0x0, symName: __ZNSt3__114__split_bufferIiRNS_9allocatorIiEEED2Ev, symObjAddr: 0x3BD4, symBinAddr: 0x1000074BC, symSize: 0x8C }
  - { offsetInCU: 0x118D3, offset: 0x118D3, size: 0x8, addend: 0x0, symName: __ZNSt3__114__split_bufferIiRNS_9allocatorIiEEE5clearB7v160006Ev, symObjAddr: 0x3C60, symBinAddr: 0x100007548, symSize: 0x28 }
  - { offsetInCU: 0x118F9, offset: 0x118F9, size: 0x8, addend: 0x0, symName: __ZNKSt3__114__split_bufferIiRNS_9allocatorIiEEE8capacityB7v160006Ev, symObjAddr: 0x3C88, symBinAddr: 0x100007570, symSize: 0x40 }
  - { offsetInCU: 0x1191F, offset: 0x1191F, size: 0x8, addend: 0x0, symName: __ZNSt3__114__split_bufferIiRNS_9allocatorIiEEE17__destruct_at_endB7v160006EPi, symObjAddr: 0x3CC8, symBinAddr: 0x1000075B0, symSize: 0x2C }
  - { offsetInCU: 0x11953, offset: 0x11953, size: 0x8, addend: 0x0, symName: __ZNSt3__114__split_bufferIiRNS_9allocatorIiEEE17__destruct_at_endB7v160006EPiNS_17integral_constantIbLb0EEE, symObjAddr: 0x3CF4, symBinAddr: 0x1000075DC, symSize: 0x80 }
  - { offsetInCU: 0x11994, offset: 0x11994, size: 0x8, addend: 0x0, symName: __ZNKSt3__114__split_bufferIiRNS_9allocatorIiEEE9__end_capB7v160006Ev, symObjAddr: 0x3D74, symBinAddr: 0x10000765C, symSize: 0x28 }
  - { offsetInCU: 0x119BA, offset: 0x119BA, size: 0x8, addend: 0x0, symName: __ZNKSt3__117__compressed_pairIPiRNS_9allocatorIiEEE5firstB7v160006Ev, symObjAddr: 0x3D9C, symBinAddr: 0x100007684, symSize: 0x24 }
  - { offsetInCU: 0x119E0, offset: 0x119E0, size: 0x8, addend: 0x0, symName: __ZNSt3__16vectorI4FormNS_9allocatorIS1_EEE9__end_capB7v160006Ev, symObjAddr: 0x3DC0, symBinAddr: 0x1000076A8, symSize: 0x28 }
  - { offsetInCU: 0x11A06, offset: 0x11A06, size: 0x8, addend: 0x0, symName: __ZNSt3__16vectorI4FormNS_9allocatorIS1_EEE22__construct_one_at_endB7v160006IJRiS6_EEEvDpOT_, symObjAddr: 0x3DE8, symBinAddr: 0x1000076D0, symSize: 0x98 }
  - { offsetInCU: 0x11A69, offset: 0x11A69, size: 0x8, addend: 0x0, symName: __ZNSt3__16vectorI4FormNS_9allocatorIS1_EEE24__emplace_back_slow_pathIJRiS6_EEEvDpOT_, symObjAddr: 0x3E80, symBinAddr: 0x100007768, symSize: 0xE0 }
  - { offsetInCU: 0x11ADD, offset: 0x11ADD, size: 0x8, addend: 0x0, symName: __ZNSt3__117__compressed_pairIP4FormNS_9allocatorIS1_EEE5firstB7v160006Ev, symObjAddr: 0x3F60, symBinAddr: 0x100007848, symSize: 0x24 }
  - { offsetInCU: 0x11B03, offset: 0x11B03, size: 0x8, addend: 0x0, symName: __ZNSt3__122__compressed_pair_elemIP4FormLi0ELb0EE5__getB7v160006Ev, symObjAddr: 0x3F84, symBinAddr: 0x10000786C, symSize: 0x14 }
  - { offsetInCU: 0x11B42, offset: 0x11B42, size: 0x8, addend: 0x0, symName: __ZNSt3__16vectorI4FormNS_9allocatorIS1_EEE21_ConstructTransactionC1B7v160006ERS4_m, symObjAddr: 0x3F98, symBinAddr: 0x100007880, symSize: 0x3C }
  - { offsetInCU: 0x11B8A, offset: 0x11B8A, size: 0x8, addend: 0x0, symName: __ZNSt3__116allocator_traitsINS_9allocatorI4FormEEE9constructB7v160006IS2_JRiS6_EvEEvRS3_PT_DpOT0_, symObjAddr: 0x3FD4, symBinAddr: 0x1000078BC, symSize: 0x3C }
  - { offsetInCU: 0x11BF5, offset: 0x11BF5, size: 0x8, addend: 0x0, symName: __ZNSt3__16vectorI4FormNS_9allocatorIS1_EEE21_ConstructTransactionD1B7v160006Ev, symObjAddr: 0x4010, symBinAddr: 0x1000078F8, symSize: 0x2C }
  - { offsetInCU: 0x11C1F, offset: 0x11C1F, size: 0x8, addend: 0x0, symName: __ZNSt3__16vectorI4FormNS_9allocatorIS1_EEE21_ConstructTransactionC2B7v160006ERS4_m, symObjAddr: 0x403C, symBinAddr: 0x100007924, symSize: 0x44 }
  - { offsetInCU: 0x11C67, offset: 0x11C67, size: 0x8, addend: 0x0, symName: __ZNSt3__19allocatorI4FormE9constructB7v160006IS1_JRiS4_EEEvPT_DpOT0_, symObjAddr: 0x4080, symBinAddr: 0x100007968, symSize: 0x40 }
  - { offsetInCU: 0x11CD0, offset: 0x11CD0, size: 0x8, addend: 0x0, symName: __ZN4FormC1Eii, symObjAddr: 0x40C0, symBinAddr: 0x1000079A8, symSize: 0x3C }
  - { offsetInCU: 0x11D16, offset: 0x11D16, size: 0x8, addend: 0x0, symName: __ZN4FormC2Eii, symObjAddr: 0x40FC, symBinAddr: 0x1000079E4, symSize: 0x2C }
  - { offsetInCU: 0x11D5C, offset: 0x11D5C, size: 0x8, addend: 0x0, symName: __ZNSt3__16vectorI4FormNS_9allocatorIS1_EEE21_ConstructTransactionD2B7v160006Ev, symObjAddr: 0x4128, symBinAddr: 0x100007A10, symSize: 0x20 }
  - { offsetInCU: 0x11D86, offset: 0x11D86, size: 0x8, addend: 0x0, symName: __ZNKSt3__16vectorI4FormNS_9allocatorIS1_EEE11__recommendB7v160006Em, symObjAddr: 0x4148, symBinAddr: 0x100007A30, symSize: 0xB4 }
  - { offsetInCU: 0x11DDB, offset: 0x11DDB, size: 0x8, addend: 0x0, symName: __ZNSt3__114__split_bufferI4FormRNS_9allocatorIS1_EEEC1EmmS4_, symObjAddr: 0x41FC, symBinAddr: 0x100007AE4, symSize: 0x44 }
  - { offsetInCU: 0x11E31, offset: 0x11E31, size: 0x8, addend: 0x0, symName: __ZNSt3__114__split_bufferI4FormRNS_9allocatorIS1_EEED1Ev, symObjAddr: 0x4358, symBinAddr: 0x100007C40, symSize: 0x2C }
  - { offsetInCU: 0x11E5D, offset: 0x11E5D, size: 0x8, addend: 0x0, symName: __ZNKSt3__16vectorI4FormNS_9allocatorIS1_EEE8max_sizeEv, symObjAddr: 0x4384, symBinAddr: 0x100007C6C, symSize: 0x60 }
  - { offsetInCU: 0x11E85, offset: 0x11E85, size: 0x8, addend: 0x0, symName: __ZNKSt3__16vectorI4FormNS_9allocatorIS1_EEE20__throw_length_errorB7v160006Ev, symObjAddr: 0x43E4, symBinAddr: 0x100007CCC, symSize: 0x1C }
  - { offsetInCU: 0x11EB5, offset: 0x11EB5, size: 0x8, addend: 0x0, symName: __ZNSt3__116allocator_traitsINS_9allocatorI4FormEEE8max_sizeB7v160006IS3_vEEmRKS3_, symObjAddr: 0x4400, symBinAddr: 0x100007CE8, symSize: 0x24 }
  - { offsetInCU: 0x11EE3, offset: 0x11EE3, size: 0x8, addend: 0x0, symName: __ZNKSt3__16vectorI4FormNS_9allocatorIS1_EEE7__allocB7v160006Ev, symObjAddr: 0x4424, symBinAddr: 0x100007D0C, symSize: 0x28 }
  - { offsetInCU: 0x11F09, offset: 0x11F09, size: 0x8, addend: 0x0, symName: __ZNKSt3__19allocatorI4FormE8max_sizeB7v160006Ev, symObjAddr: 0x444C, symBinAddr: 0x100007D34, symSize: 0x14 }
  - { offsetInCU: 0x11F2F, offset: 0x11F2F, size: 0x8, addend: 0x0, symName: __ZNKSt3__117__compressed_pairIP4FormNS_9allocatorIS1_EEE6secondB7v160006Ev, symObjAddr: 0x4460, symBinAddr: 0x100007D48, symSize: 0x24 }
  - { offsetInCU: 0x11F55, offset: 0x11F55, size: 0x8, addend: 0x0, symName: __ZNKSt3__122__compressed_pair_elemINS_9allocatorI4FormEELi1ELb1EE5__getB7v160006Ev, symObjAddr: 0x4484, symBinAddr: 0x100007D6C, symSize: 0x14 }
  - { offsetInCU: 0x11F7B, offset: 0x11F7B, size: 0x8, addend: 0x0, symName: __ZNSt3__114__split_bufferI4FormRNS_9allocatorIS1_EEEC2EmmS4_, symObjAddr: 0x4498, symBinAddr: 0x100007D80, symSize: 0xD4 }
  - { offsetInCU: 0x11FEE, offset: 0x11FEE, size: 0x8, addend: 0x0, symName: __ZNSt3__117__compressed_pairIP4FormRNS_9allocatorIS1_EEEC1B7v160006IDnS5_EEOT_OT0_, symObjAddr: 0x456C, symBinAddr: 0x100007E54, symSize: 0x3C }
  - { offsetInCU: 0x12046, offset: 0x12046, size: 0x8, addend: 0x0, symName: __ZNSt3__114__split_bufferI4FormRNS_9allocatorIS1_EEE7__allocB7v160006Ev, symObjAddr: 0x45E8, symBinAddr: 0x100007ED0, symSize: 0x28 }
  - { offsetInCU: 0x1206C, offset: 0x1206C, size: 0x8, addend: 0x0, symName: __ZNSt3__114__split_bufferI4FormRNS_9allocatorIS1_EEE9__end_capB7v160006Ev, symObjAddr: 0x4610, symBinAddr: 0x100007EF8, symSize: 0x28 }
  - { offsetInCU: 0x12092, offset: 0x12092, size: 0x8, addend: 0x0, symName: __ZNSt3__117__compressed_pairIP4FormRNS_9allocatorIS1_EEEC2B7v160006IDnS5_EEOT_OT0_, symObjAddr: 0x4638, symBinAddr: 0x100007F20, symSize: 0x48 }
  - { offsetInCU: 0x120EA, offset: 0x120EA, size: 0x8, addend: 0x0, symName: __ZNSt3__122__compressed_pair_elemIRNS_9allocatorI4FormEELi1ELb0EEC2B7v160006IS4_vEEOT_, symObjAddr: 0x4680, symBinAddr: 0x100007F68, symSize: 0x20 }
  - { offsetInCU: 0x1212C, offset: 0x1212C, size: 0x8, addend: 0x0, symName: __ZNSt3__19allocatorI4FormE8allocateB7v160006Em, symObjAddr: 0x46A0, symBinAddr: 0x100007F88, symSize: 0x58 }
  - { offsetInCU: 0x12160, offset: 0x12160, size: 0x8, addend: 0x0, symName: __ZNSt3__117__compressed_pairIP4FormRNS_9allocatorIS1_EEE6secondB7v160006Ev, symObjAddr: 0x46F8, symBinAddr: 0x100007FE0, symSize: 0x28 }
  - { offsetInCU: 0x12186, offset: 0x12186, size: 0x8, addend: 0x0, symName: __ZNSt3__122__compressed_pair_elemIRNS_9allocatorI4FormEELi1ELb0EE5__getB7v160006Ev, symObjAddr: 0x4720, symBinAddr: 0x100008008, symSize: 0x18 }
  - { offsetInCU: 0x121AC, offset: 0x121AC, size: 0x8, addend: 0x0, symName: __ZNSt3__117__compressed_pairIP4FormRNS_9allocatorIS1_EEE5firstB7v160006Ev, symObjAddr: 0x4738, symBinAddr: 0x100008020, symSize: 0x24 }
  - { offsetInCU: 0x121D2, offset: 0x121D2, size: 0x8, addend: 0x0, symName: __ZNSt3__116reverse_iteratorIP4FormEC1B7v160006ES2_, symObjAddr: 0x47D4, symBinAddr: 0x1000080BC, symSize: 0x34 }
  - { offsetInCU: 0x1220A, offset: 0x1220A, size: 0x8, addend: 0x0, symName: __ZNKSt3__116reverse_iteratorIP4FormE4baseB7v160006Ev, symObjAddr: 0x4808, symBinAddr: 0x1000080F0, symSize: 0x18 }
  - { offsetInCU: 0x12230, offset: 0x12230, size: 0x8, addend: 0x0, symName: __ZNKSt3__16vectorI4FormNS_9allocatorIS1_EEE14__annotate_newB7v160006Em, symObjAddr: 0x485C, symBinAddr: 0x100008144, symSize: 0xAC }
  - { offsetInCU: 0x1227E, offset: 0x1227E, size: 0x8, addend: 0x0, symName: __ZNKSt3__111__move_loopINS_17_ClassicAlgPolicyEEclB7v160006INS_16reverse_iteratorIP4FormEES7_S7_EENS_4pairIT_T1_EES9_T0_SA_, symObjAddr: 0x4C08, symBinAddr: 0x1000084F0, symSize: 0xA0 }
  - { offsetInCU: 0x122EE, offset: 0x122EE, size: 0x8, addend: 0x0, symName: __ZNSt3__18_IterOpsINS_17_ClassicAlgPolicyEE11__iter_moveB7v160006IRNS_16reverse_iteratorIP4FormEEEENS_9enable_ifIXsr12is_referenceIDTdeclsr3stdE7declvalIRT_EEEEE5valueEDTclsr3stdE4movedeclsr3stdE7declvalISB_EEEEE4typeEOSA_, symObjAddr: 0x4E3C, symBinAddr: 0x100008724, symSize: 0x28 }
  - { offsetInCU: 0x1231A, offset: 0x1231A, size: 0x8, addend: 0x0, symName: __ZNKSt3__116reverse_iteratorIP4FormEdeB7v160006Ev, symObjAddr: 0x4E64, symBinAddr: 0x10000874C, symSize: 0x28 }
  - { offsetInCU: 0x1234E, offset: 0x1234E, size: 0x8, addend: 0x0, symName: __ZNSt3__116reverse_iteratorIP4FormEppB7v160006Ev, symObjAddr: 0x4E8C, symBinAddr: 0x100008774, symSize: 0x20 }
  - { offsetInCU: 0x12374, offset: 0x12374, size: 0x8, addend: 0x0, symName: __ZNSt3__18_IterOpsINS_17_ClassicAlgPolicyEE25__validate_iter_referenceB7v160006IRNS_16reverse_iteratorIP4FormEEEEvv, symObjAddr: 0x4EAC, symBinAddr: 0x100008794, symSize: 0x4 }
  - { offsetInCU: 0x12392, offset: 0x12392, size: 0x8, addend: 0x0, symName: __ZNSt3__118__unwrap_iter_implINS_16reverse_iteratorIP4FormEELb0EE8__unwrapB7v160006ES4_, symObjAddr: 0x4EB0, symBinAddr: 0x100008798, symSize: 0x24 }
  - { offsetInCU: 0x123BA, offset: 0x123BA, size: 0x8, addend: 0x0, symName: __ZNSt3__14pairINS_16reverse_iteratorIP4FormEES4_EC1B7v160006IS4_S4_LPv0EEEOT_OT0_, symObjAddr: 0x4ED4, symBinAddr: 0x1000087BC, symSize: 0x3C }
  - { offsetInCU: 0x12418, offset: 0x12418, size: 0x8, addend: 0x0, symName: __ZNSt3__14pairINS_16reverse_iteratorIP4FormEES4_EC2B7v160006IS4_S4_LPv0EEEOT_OT0_, symObjAddr: 0x4F10, symBinAddr: 0x1000087F8, symSize: 0x34 }
  - { offsetInCU: 0x12476, offset: 0x12476, size: 0x8, addend: 0x0, symName: __ZNSt3__118__unwrap_iter_implINS_16reverse_iteratorIP4FormEELb0EE8__rewrapB7v160006ES4_S4_, symObjAddr: 0x4F44, symBinAddr: 0x10000882C, symSize: 0x2C }
  - { offsetInCU: 0x124A4, offset: 0x124A4, size: 0x8, addend: 0x0, symName: __ZNSt3__116reverse_iteratorIP4FormEC2B7v160006ES2_, symObjAddr: 0x4F70, symBinAddr: 0x100008858, symSize: 0x28 }
  - { offsetInCU: 0x124DC, offset: 0x124DC, size: 0x8, addend: 0x0, symName: __ZNSt3__114__split_bufferI4FormRNS_9allocatorIS1_EEED2Ev, symObjAddr: 0x4F98, symBinAddr: 0x100008880, symSize: 0x8C }
  - { offsetInCU: 0x12508, offset: 0x12508, size: 0x8, addend: 0x0, symName: __ZNSt3__114__split_bufferI4FormRNS_9allocatorIS1_EEE5clearB7v160006Ev, symObjAddr: 0x5024, symBinAddr: 0x10000890C, symSize: 0x28 }
  - { offsetInCU: 0x1252E, offset: 0x1252E, size: 0x8, addend: 0x0, symName: __ZNKSt3__114__split_bufferI4FormRNS_9allocatorIS1_EEE8capacityB7v160006Ev, symObjAddr: 0x504C, symBinAddr: 0x100008934, symSize: 0x40 }
  - { offsetInCU: 0x12554, offset: 0x12554, size: 0x8, addend: 0x0, symName: __ZNSt3__114__split_bufferI4FormRNS_9allocatorIS1_EEE17__destruct_at_endB7v160006EPS1_, symObjAddr: 0x508C, symBinAddr: 0x100008974, symSize: 0x2C }
  - { offsetInCU: 0x12588, offset: 0x12588, size: 0x8, addend: 0x0, symName: __ZNSt3__114__split_bufferI4FormRNS_9allocatorIS1_EEE17__destruct_at_endB7v160006EPS1_NS_17integral_constantIbLb0EEE, symObjAddr: 0x50B8, symBinAddr: 0x1000089A0, symSize: 0x80 }
  - { offsetInCU: 0x125C9, offset: 0x125C9, size: 0x8, addend: 0x0, symName: __ZNKSt3__114__split_bufferI4FormRNS_9allocatorIS1_EEE9__end_capB7v160006Ev, symObjAddr: 0x5138, symBinAddr: 0x100008A20, symSize: 0x28 }
  - { offsetInCU: 0x125EF, offset: 0x125EF, size: 0x8, addend: 0x0, symName: __ZNKSt3__117__compressed_pairIP4FormRNS_9allocatorIS1_EEE5firstB7v160006Ev, symObjAddr: 0x5160, symBinAddr: 0x100008A48, symSize: 0x24 }
  - { offsetInCU: 0x12633, offset: 0x12633, size: 0x8, addend: 0x0, symName: __ZNKSt3__113basic_istreamIcNS_11char_traitsIcEEE6sentrycvbB7v160006Ev, symObjAddr: 0x53BC, symBinAddr: 0x100008CA4, symSize: 0x1C }
  - { offsetInCU: 0x12659, offset: 0x12659, size: 0x8, addend: 0x0, symName: __ZNSt3__112basic_stringIcNS_11char_traitsIcEENS_9allocatorIcEEE5clearB7v160006Ev, symObjAddr: 0x53D8, symBinAddr: 0x100008CC0, symSize: 0x88 }
  - { offsetInCU: 0x12681, offset: 0x12681, size: 0x8, addend: 0x0, symName: __ZNSt3__115basic_streambufIcNS_11char_traitsIcEEE6sbumpcB7v160006Ev, symObjAddr: 0x5460, symBinAddr: 0x100008D48, symSize: 0x78 }
  - { offsetInCU: 0x126A7, offset: 0x126A7, size: 0x8, addend: 0x0, symName: __ZNSt3__111char_traitsIcE12to_char_typeEi, symObjAddr: 0x54D8, symBinAddr: 0x100008DC0, symSize: 0x18 }
  - { offsetInCU: 0x126CA, offset: 0x126CA, size: 0x8, addend: 0x0, symName: __ZNSt3__111char_traitsIcE2eqEcc, symObjAddr: 0x54F0, symBinAddr: 0x100008DD8, symSize: 0x28 }
  - { offsetInCU: 0x126FB, offset: 0x126FB, size: 0x8, addend: 0x0, symName: __ZNKSt3__112basic_stringIcNS_11char_traitsIcEENS_9allocatorIcEEE8max_sizeB7v160006Ev, symObjAddr: 0x5518, symBinAddr: 0x100008E00, symSize: 0xAC }
  - { offsetInCU: 0x1274D, offset: 0x1274D, size: 0x8, addend: 0x0, symName: __ZNSt3__18ios_base18__setstate_nothrowB7v160006Ej, symObjAddr: 0x55C4, symBinAddr: 0x100008EAC, symSize: 0x64 }
  - { offsetInCU: 0x12782, offset: 0x12782, size: 0x8, addend: 0x0, symName: __ZNKSt3__19basic_iosIcNS_11char_traitsIcEEE10exceptionsB7v160006Ev, symObjAddr: 0x5628, symBinAddr: 0x100008F10, symSize: 0x24 }
  - { offsetInCU: 0x127A8, offset: 0x127A8, size: 0x8, addend: 0x0, symName: __ZNSt3__111char_traitsIcE6assignERcRKc, symObjAddr: 0x565C, symBinAddr: 0x100008F44, symSize: 0x24 }
  - { offsetInCU: 0x127D9, offset: 0x127D9, size: 0x8, addend: 0x0, symName: __ZNSt3__112basic_stringIcNS_11char_traitsIcEENS_9allocatorIcEEE18__get_long_pointerB7v160006Ev, symObjAddr: 0x5680, symBinAddr: 0x100008F68, symSize: 0x28 }
  - { offsetInCU: 0x127FF, offset: 0x127FF, size: 0x8, addend: 0x0, symName: __ZNSt3__112basic_stringIcNS_11char_traitsIcEENS_9allocatorIcEEE15__set_long_sizeB7v160006Em, symObjAddr: 0x56A8, symBinAddr: 0x100008F90, symSize: 0x38 }
  - { offsetInCU: 0x12834, offset: 0x12834, size: 0x8, addend: 0x0, symName: __ZNSt3__112basic_stringIcNS_11char_traitsIcEENS_9allocatorIcEEE19__get_short_pointerB7v160006Ev, symObjAddr: 0x56E0, symBinAddr: 0x100008FC8, symSize: 0x28 }
  - { offsetInCU: 0x1285A, offset: 0x1285A, size: 0x8, addend: 0x0, symName: __ZNSt3__112basic_stringIcNS_11char_traitsIcEENS_9allocatorIcEEE16__set_short_sizeB7v160006Em, symObjAddr: 0x5708, symBinAddr: 0x100008FF0, symSize: 0x78 }
  - { offsetInCU: 0x1288F, offset: 0x1288F, size: 0x8, addend: 0x0, symName: __ZNSt3__117__compressed_pairINS_12basic_stringIcNS_11char_traitsIcEENS_9allocatorIcEEE5__repES5_E5firstB7v160006Ev, symObjAddr: 0x5780, symBinAddr: 0x100009068, symSize: 0x24 }
  - { offsetInCU: 0x128B5, offset: 0x128B5, size: 0x8, addend: 0x0, symName: __ZNSt3__122__compressed_pair_elemINS_12basic_stringIcNS_11char_traitsIcEENS_9allocatorIcEEE5__repELi0ELb0EE5__getB7v160006Ev, symObjAddr: 0x57A4, symBinAddr: 0x10000908C, symSize: 0x14 }
  - { offsetInCU: 0x128DB, offset: 0x128DB, size: 0x8, addend: 0x0, symName: __ZNSt3__114pointer_traitsIPcE10pointer_toB7v160006ERc, symObjAddr: 0x57B8, symBinAddr: 0x1000090A0, symSize: 0x14 }
  - { offsetInCU: 0x128FE, offset: 0x128FE, size: 0x8, addend: 0x0, symName: __ZNSt3__111char_traitsIcE11to_int_typeEc, symObjAddr: 0x57CC, symBinAddr: 0x1000090B4, symSize: 0x14 }
  - { offsetInCU: 0x1292B, offset: 0x1292B, size: 0x8, addend: 0x0, symName: __ZNSt3__116allocator_traitsINS_9allocatorIcEEE8max_sizeB7v160006IS2_vEEmRKS2_, symObjAddr: 0x57E0, symBinAddr: 0x1000090C8, symSize: 0x24 }
  - { offsetInCU: 0x12959, offset: 0x12959, size: 0x8, addend: 0x0, symName: __ZNKSt3__112basic_stringIcNS_11char_traitsIcEENS_9allocatorIcEEE7__allocB7v160006Ev, symObjAddr: 0x5804, symBinAddr: 0x1000090EC, symSize: 0x24 }
  - { offsetInCU: 0x1297F, offset: 0x1297F, size: 0x8, addend: 0x0, symName: __ZNSt3__114numeric_limitsImE3maxB7v160006Ev, symObjAddr: 0x5828, symBinAddr: 0x100009110, symSize: 0x14 }
  - { offsetInCU: 0x12993, offset: 0x12993, size: 0x8, addend: 0x0, symName: __ZNKSt3__19allocatorIcE8max_sizeB7v160006Ev, symObjAddr: 0x583C, symBinAddr: 0x100009124, symSize: 0x14 }
  - { offsetInCU: 0x129B9, offset: 0x129B9, size: 0x8, addend: 0x0, symName: __ZNKSt3__117__compressed_pairINS_12basic_stringIcNS_11char_traitsIcEENS_9allocatorIcEEE5__repES5_E6secondB7v160006Ev, symObjAddr: 0x5850, symBinAddr: 0x100009138, symSize: 0x24 }
  - { offsetInCU: 0x129DF, offset: 0x129DF, size: 0x8, addend: 0x0, symName: __ZNKSt3__122__compressed_pair_elemINS_9allocatorIcEELi1ELb1EE5__getB7v160006Ev, symObjAddr: 0x5874, symBinAddr: 0x10000915C, symSize: 0x14 }
  - { offsetInCU: 0x12A05, offset: 0x12A05, size: 0x8, addend: 0x0, symName: __ZNSt3__123__libcpp_numeric_limitsImLb1EE3maxB7v160006Ev, symObjAddr: 0x5888, symBinAddr: 0x100009170, symSize: 0x8 }
  - { offsetInCU: 0x12A19, offset: 0x12A19, size: 0x8, addend: 0x0, symName: __ZNKSt3__18ios_base10exceptionsB7v160006Ev, symObjAddr: 0x5890, symBinAddr: 0x100009178, symSize: 0x18 }
  - { offsetInCU: 0x12A41, offset: 0x12A41, size: 0x8, addend: 0x0, symName: __ZNSt3__19basic_iosIcNS_11char_traitsIcEEEC2B7v160006Ev, symObjAddr: 0x58A8, symBinAddr: 0x100009190, symSize: 0x44 }
  - { offsetInCU: 0x12A6B, offset: 0x12A6B, size: 0x8, addend: 0x0, symName: __ZNSt3__113basic_istreamIcNS_11char_traitsIcEEEC2B7v160006EPNS_15basic_streambufIcS2_EE, symObjAddr: 0x58EC, symBinAddr: 0x1000091D4, symSize: 0x64 }
  - { offsetInCU: 0x12AB0, offset: 0x12AB0, size: 0x8, addend: 0x0, symName: __ZNSt3__115basic_stringbufIcNS_11char_traitsIcEENS_9allocatorIcEEEC1B7v160006ERKNS_12basic_stringIcS2_S4_EEj, symObjAddr: 0x5950, symBinAddr: 0x100009238, symSize: 0x3C }
  - { offsetInCU: 0x12AF6, offset: 0x12AF6, size: 0x8, addend: 0x0, symName: __ZNSt3__18ios_baseC2B7v160006Ev, symObjAddr: 0x598C, symBinAddr: 0x100009274, symSize: 0x24 }
  - { offsetInCU: 0x12B20, offset: 0x12B20, size: 0x8, addend: 0x0, symName: __ZNSt3__19basic_iosIcNS_11char_traitsIcEEE4initB7v160006EPNS_15basic_streambufIcS2_EE, symObjAddr: 0x59B0, symBinAddr: 0x100009298, symSize: 0x44 }
  - { offsetInCU: 0x12B57, offset: 0x12B57, size: 0x8, addend: 0x0, symName: __ZNSt3__115basic_stringbufIcNS_11char_traitsIcEENS_9allocatorIcEEEC2B7v160006ERKNS_12basic_stringIcS2_S4_EEj, symObjAddr: 0x59F4, symBinAddr: 0x1000092DC, symSize: 0xB4 }
  - { offsetInCU: 0x12B9D, offset: 0x12B9D, size: 0x8, addend: 0x0, symName: __ZNKSt3__112basic_stringIcNS_11char_traitsIcEENS_9allocatorIcEEE13get_allocatorB7v160006Ev, symObjAddr: 0x5AA8, symBinAddr: 0x100009390, symSize: 0x24 }
  - { offsetInCU: 0x12BC3, offset: 0x12BC3, size: 0x8, addend: 0x0, symName: __ZNSt3__112basic_stringIcNS_11char_traitsIcEENS_9allocatorIcEEEC1B7v160006ERKS4_, symObjAddr: 0x5ACC, symBinAddr: 0x1000093B4, symSize: 0x34 }
  - { offsetInCU: 0x12BFC, offset: 0x12BFC, size: 0x8, addend: 0x0, symName: __ZNSt3__112basic_stringIcNS_11char_traitsIcEENS_9allocatorIcEEEC2B7v160006ERKS4_, symObjAddr: 0x5B00, symBinAddr: 0x1000093E8, symSize: 0x54 }
  - { offsetInCU: 0x12C35, offset: 0x12C35, size: 0x8, addend: 0x0, symName: __ZNSt3__117__compressed_pairINS_12basic_stringIcNS_11char_traitsIcEENS_9allocatorIcEEE5__repES5_EC1B7v160006INS_18__default_init_tagERKS5_EEOT_OT0_, symObjAddr: 0x5B54, symBinAddr: 0x10000943C, symSize: 0x3C }
  - { offsetInCU: 0x12C8D, offset: 0x12C8D, size: 0x8, addend: 0x0, symName: __ZNSt3__112basic_stringIcNS_11char_traitsIcEENS_9allocatorIcEEE14__default_initB7v160006Ev, symObjAddr: 0x5B90, symBinAddr: 0x100009478, symSize: 0x40 }
  - { offsetInCU: 0x12CB3, offset: 0x12CB3, size: 0x8, addend: 0x0, symName: __ZNSt3__117__compressed_pairINS_12basic_stringIcNS_11char_traitsIcEENS_9allocatorIcEEE5__repES5_EC2B7v160006INS_18__default_init_tagERKS5_EEOT_OT0_, symObjAddr: 0x5BD0, symBinAddr: 0x1000094B8, symSize: 0x40 }
  - { offsetInCU: 0x12D0B, offset: 0x12D0B, size: 0x8, addend: 0x0, symName: __ZNSt3__122__compressed_pair_elemINS_9allocatorIcEELi1ELb1EEC2B7v160006IRKS2_vEEOT_, symObjAddr: 0x5C10, symBinAddr: 0x1000094F8, symSize: 0x18 }
  - { offsetInCU: 0x12D67, offset: 0x12D67, size: 0x8, addend: 0x0, symName: __ZNSt3__116_UnwrapAlgPolicyIRPFb4FormS1_EE10__get_compB7v160006ES4_, symObjAddr: 0x5DA8, symBinAddr: 0x100009690, symSize: 0x14 }
  - { offsetInCU: 0x12D8A, offset: 0x12D8A, size: 0x8, addend: 0x0, symName: __ZNSt3__18_IterOpsINS_17_ClassicAlgPolicyEE9iter_swapB7v160006IRP4FormS6_EEvOT_OT0_, symObjAddr: 0x669C, symBinAddr: 0x100009F84, symSize: 0x34 }
  - { offsetInCU: 0x12DCD, offset: 0x12DCD, size: 0x8, addend: 0x0, symName: __ZNSt3__18_IterOpsINS_17_ClassicAlgPolicyEE11__iter_moveB7v160006IRP4FormEENS_9enable_ifIXsr12is_referenceIDTdeclsr3stdE7declvalIRT_EEEEE5valueEDTclsr3stdE4movedeclsr3stdE7declvalIS9_EEEEE4typeEOS8_, symObjAddr: 0x70E4, symBinAddr: 0x10000A9CC, symSize: 0x28 }
  - { offsetInCU: 0x12DF9, offset: 0x12DF9, size: 0x8, addend: 0x0, symName: __ZNSt3__18_IterOpsINS_17_ClassicAlgPolicyEE25__validate_iter_referenceB7v160006IRP4FormEEvv, symObjAddr: 0x710C, symBinAddr: 0x10000A9F4, symSize: 0x4 }
  - { offsetInCU: 0x12E17, offset: 0x12E17, size: 0x8, addend: 0x0, symName: __ZNSt3__18_IterOpsINS_17_ClassicAlgPolicyEE4nextB7v160006IP4FormEET_S6_S6_, symObjAddr: 0x7110, symBinAddr: 0x10000A9F8, symSize: 0x18 }
  - { offsetInCU: 0x12E4E, offset: 0x12E4E, size: 0x8, addend: 0x0, symName: __ZNSt3__118__unwrap_iter_implINS_11__wrap_iterIP4FormEELb1EE8__unwrapB7v160006ES4_, symObjAddr: 0x7B18, symBinAddr: 0x10000B400, symSize: 0x28 }
  - { offsetInCU: 0x12E7B, offset: 0x12E7B, size: 0x8, addend: 0x0, symName: __ZNSt3__119__to_address_helperINS_11__wrap_iterIP4FormEEvE6__callB7v160006ERKS4_, symObjAddr: 0x7B64, symBinAddr: 0x10000B44C, symSize: 0x30 }
  - { offsetInCU: 0x12E9E, offset: 0x12E9E, size: 0x8, addend: 0x0, symName: __ZNSt3__114pointer_traitsINS_11__wrap_iterIP4FormEEE10to_addressB7v160006ES4_, symObjAddr: 0x7B94, symBinAddr: 0x10000B47C, symSize: 0x2C }
...
