---
triple:          'arm64-apple-darwin'
binary-path:     '/Users/kimbyeonghyeon/Workspace/DataStructure/Assignment/Robot/robot'
relocations:
  - { offsetInCU: 0x3F, offset: 0x3F, size: 0x8, addend: 0x0, symName: _directions, symObjAddr: 0x8864, symBinAddr: 0x100010000, symSize: 0x0 }
  - { offsetInCU: 0x9315, offset: 0x9315, size: 0x8, addend: 0x0, symName: __ZNSt3__117__floyd_sift_downB7v160006INS_17_ClassicAlgPolicyERNS_7greaterIvEENS_11__wrap_iterIPNS_5tupleIJiiiiEEEEEEET1_SA_OT0_NS_15iterator_traitsISA_E15difference_typeE, symObjAddr: 0x7D2C, symBinAddr: 0x10000ABF8, symSize: 0x148 }
  - { offsetInCU: 0xA19E, offset: 0xA19E, size: 0x8, addend: 0x0, symName: __ZNSt3__1neB7v160006IPiEEbRKNS_11__wrap_iterIT_EES6_, symObjAddr: 0x330, symBinAddr: 0x1000031FC, symSize: 0x34 }
  - { offsetInCU: 0xA4A0, offset: 0xA4A0, size: 0x8, addend: 0x0, symName: __ZNSt3__1neB7v160006IPNS_6vectorIiNS_9allocatorIiEEEEEEbRKNS_11__wrap_iterIT_EESA_, symObjAddr: 0x844, symBinAddr: 0x100003710, symSize: 0x34 }
  - { offsetInCU: 0xA4E3, offset: 0xA4E3, size: 0x8, addend: 0x0, symName: __ZNSt3__13tieB7v160006IJiiiiEEENS_5tupleIJDpRT_EEES4_, symObjAddr: 0x990, symBinAddr: 0x10000385C, symSize: 0x48 }
  - { offsetInCU: 0xABD2, offset: 0xABD2, size: 0x8, addend: 0x0, symName: __ZNSt3__13minB7v160006IiEERKT_S3_S3_, symObjAddr: 0xA64, symBinAddr: 0x100003930, symSize: 0x2C }
  - { offsetInCU: 0xB85A, offset: 0xB85A, size: 0x8, addend: 0x0, symName: __ZNSt3__1eqB7v160006IPiEEbRKNS_11__wrap_iterIT_EES6_, symObjAddr: 0xCA0, symBinAddr: 0x100003B6C, symSize: 0x48 }
  - { offsetInCU: 0xB89D, offset: 0xB89D, size: 0x8, addend: 0x0, symName: __ZNSt3__1eqB7v160006IPNS_6vectorIiNS_9allocatorIiEEEEEEbRKNS_11__wrap_iterIT_EESA_, symObjAddr: 0xD00, symBinAddr: 0x100003BCC, symSize: 0x48 }
  - { offsetInCU: 0xB91E, offset: 0xB91E, size: 0x8, addend: 0x0, symName: __ZNSt3__13minB7v160006IiNS_6__lessIiiEEEERKT_S5_S5_T0_, symObjAddr: 0xF34, symBinAddr: 0x100003E00, symSize: 0x54 }
  - { offsetInCU: 0xB9B3, offset: 0xB9B3, size: 0x8, addend: 0x0, symName: __ZNSt3__118__debug_db_erase_cB7v160006INS_6vectorINS_5tupleIJiiiiEEENS_9allocatorIS3_EEEEEEvPT_, symObjAddr: 0x120C, symBinAddr: 0x1000040D8, symSize: 0x10 }
  - { offsetInCU: 0xB9E4, offset: 0xB9E4, size: 0x8, addend: 0x0, symName: __ZNSt3__112__to_addressB7v160006INS_5tupleIJiiiiEEEEEPT_S4_, symObjAddr: 0x1350, symBinAddr: 0x10000421C, symSize: 0x14 }
  - { offsetInCU: 0xBA19, offset: 0xBA19, size: 0x8, addend: 0x0, symName: __ZNSt3__119__libcpp_deallocateB7v160006EPvmm, symObjAddr: 0x1470, symBinAddr: 0x10000433C, symSize: 0x30 }
  - { offsetInCU: 0xBA61, offset: 0xBA61, size: 0x8, addend: 0x0, symName: __ZNSt3__127__do_deallocate_handle_sizeB7v160006IJEEEvPvmDpT_, symObjAddr: 0x14A0, symBinAddr: 0x10000436C, symSize: 0x28 }
  - { offsetInCU: 0xBA9F, offset: 0xBA9F, size: 0x8, addend: 0x0, symName: __ZNSt3__124__libcpp_operator_deleteB7v160006IJPvEEEvDpT_, symObjAddr: 0x14C8, symBinAddr: 0x100004394, symSize: 0x24 }
  - { offsetInCU: 0xBAD4, offset: 0xBAD4, size: 0x8, addend: 0x0, symName: __ZNSt3__119__debug_db_insert_cB7v160006INS_6vectorINS1_IiNS_9allocatorIiEEEENS2_IS4_EEEEEEvPT_, symObjAddr: 0x1618, symBinAddr: 0x1000044E4, symSize: 0x10 }
  - { offsetInCU: 0xBB05, offset: 0xBB05, size: 0x8, addend: 0x0, symName: __ZNSt3__118__debug_db_erase_cB7v160006INS_6vectorINS1_IiNS_9allocatorIiEEEENS2_IS4_EEEEEEvPT_, symObjAddr: 0x18F8, symBinAddr: 0x1000047C4, symSize: 0x10 }
  - { offsetInCU: 0xBB36, offset: 0xBB36, size: 0x8, addend: 0x0, symName: __ZNSt3__112__to_addressB7v160006INS_6vectorIiNS_9allocatorIiEEEEEEPT_S6_, symObjAddr: 0x1A3C, symBinAddr: 0x100004908, symSize: 0x14 }
  - { offsetInCU: 0xBB6B, offset: 0xBB6B, size: 0x8, addend: 0x0, symName: __ZNSt3__118__debug_db_erase_cB7v160006INS_6vectorIiNS_9allocatorIiEEEEEEvPT_, symObjAddr: 0x1D48, symBinAddr: 0x100004C14, symSize: 0x10 }
  - { offsetInCU: 0xBB9C, offset: 0xBB9C, size: 0x8, addend: 0x0, symName: __ZNSt3__112__to_addressB7v160006IiEEPT_S2_, symObjAddr: 0x1E8C, symBinAddr: 0x100004D58, symSize: 0x14 }
  - { offsetInCU: 0xBBD1, offset: 0xBBD1, size: 0x8, addend: 0x0, symName: __ZNSt3__119__debug_db_insert_cB7v160006INS_6vectorIiNS_9allocatorIiEEEEEEvPT_, symObjAddr: 0x2868, symBinAddr: 0x100005734, symSize: 0x10 }
  - { offsetInCU: 0xBC02, offset: 0xBC02, size: 0x8, addend: 0x0, symName: __ZNSt3__13maxB7v160006ImEERKT_S3_S3_, symObjAddr: 0x29DC, symBinAddr: 0x1000058A8, symSize: 0x2C }
  - { offsetInCU: 0xBC45, offset: 0xBC45, size: 0x8, addend: 0x0, symName: __ZNSt3__13minB7v160006ImEERKT_S3_S3_, symObjAddr: 0x2A08, symBinAddr: 0x1000058D4, symSize: 0x2C }
  - { offsetInCU: 0xBE89, offset: 0xBE89, size: 0x8, addend: 0x0, symName: __ZNSt3__13minB7v160006ImNS_6__lessImmEEEERKT_S5_S5_T0_, symObjAddr: 0x2A94, symBinAddr: 0x100005960, symSize: 0x54 }
  - { offsetInCU: 0xBF1E, offset: 0xBF1E, size: 0x8, addend: 0x0, symName: __ZNSt3__120__throw_length_errorB7v160006EPKc, symObjAddr: 0x2B74, symBinAddr: 0x100005A40, symSize: 0x64 }
  - { offsetInCU: 0xBF46, offset: 0xBF46, size: 0x8, addend: 0x0, symName: __ZNSt3__13maxB7v160006ImNS_6__lessImmEEEERKT_S5_S5_T0_, symObjAddr: 0x2C58, symBinAddr: 0x100005B24, symSize: 0x54 }
  - { offsetInCU: 0xBFA0, offset: 0xBFA0, size: 0x8, addend: 0x0, symName: __ZNSt3__119__allocate_at_leastB7v160006INS_9allocatorINS_6vectorIiNS1_IiEEEEEEEENS_19__allocation_resultINS_16allocator_traitsIT_E7pointerEEERS8_m, symObjAddr: 0x2DC8, symBinAddr: 0x100005C94, symSize: 0x40 }
  - { offsetInCU: 0xBFE3, offset: 0xBFE3, size: 0x8, addend: 0x0, symName: __ZNSt3__117__libcpp_allocateB7v160006Emm, symObjAddr: 0x2F50, symBinAddr: 0x100005E1C, symSize: 0x28 }
  - { offsetInCU: 0xC020, offset: 0xC020, size: 0x8, addend: 0x0, symName: __ZNSt3__121__libcpp_operator_newB7v160006IJmEEEPvDpT_, symObjAddr: 0x2F78, symBinAddr: 0x100005E44, symSize: 0x24 }
  - { offsetInCU: 0xC059, offset: 0xC059, size: 0x8, addend: 0x0, symName: __ZNSt3__142__uninitialized_allocator_move_if_noexceptB7v160006INS_9allocatorINS_6vectorIiNS1_IiEEEEEENS_16reverse_iteratorIPS4_EES8_S8_EET2_RT_T0_T1_S9_, symObjAddr: 0x30D4, symBinAddr: 0x100005FA0, symSize: 0x12C }
  - { offsetInCU: 0xC0F9, offset: 0xC0F9, size: 0x8, addend: 0x0, symName: __ZNSt3__14swapB7v160006IPNS_6vectorIiNS_9allocatorIiEEEEEENS_9enable_ifIXaasr21is_move_constructibleIT_EE5valuesr18is_move_assignableIS7_EE5valueEvE4typeERS7_SA_, symObjAddr: 0x324C, symBinAddr: 0x100006118, symSize: 0x3C }
  - { offsetInCU: 0xC14A, offset: 0xC14A, size: 0x8, addend: 0x0, symName: __ZNSt3__125__debug_db_invalidate_allB7v160006INS_6vectorINS1_IiNS_9allocatorIiEEEENS2_IS4_EEEEEEvPT_, symObjAddr: 0x3350, symBinAddr: 0x10000621C, symSize: 0x10 }
  - { offsetInCU: 0xC17B, offset: 0xC17B, size: 0x8, addend: 0x0, symName: __ZNSt3__122__make_exception_guardB7v160006INS_29_AllocatorDestroyRangeReverseINS_9allocatorINS_6vectorIiNS2_IiEEEEEENS_16reverse_iteratorIPS5_EEEEEENS_28__exception_guard_exceptionsIT_EESC_, symObjAddr: 0x3360, symBinAddr: 0x10000622C, symSize: 0x4C }
  - { offsetInCU: 0xC1B1, offset: 0xC1B1, size: 0x8, addend: 0x0, symName: __ZNSt3__1neB7v160006IPNS_6vectorIiNS_9allocatorIiEEEES5_EEbRKNS_16reverse_iteratorIT_EERKNS6_IT0_EE, symObjAddr: 0x33F0, symBinAddr: 0x1000062BC, symSize: 0x48 }
  - { offsetInCU: 0xC1FD, offset: 0xC1FD, size: 0x8, addend: 0x0, symName: __ZNSt3__112__to_addressB7v160006INS_16reverse_iteratorIPNS_6vectorIiNS_9allocatorIiEEEEEEvEENS_5decayIDTclsr19__to_address_helperIT_EE6__callclsr3stdE7declvalIRKS9_EEEEE4typeESB_, symObjAddr: 0x346C, symBinAddr: 0x100006338, symSize: 0x24 }
  - { offsetInCU: 0xC233, offset: 0xC233, size: 0x8, addend: 0x0, symName: __ZNSt3__115__debug_db_swapB7v160006INS_6vectorIiNS_9allocatorIiEEEEEEvPT_S6_, symObjAddr: 0x3738, symBinAddr: 0x100006604, symSize: 0x14 }
  - { offsetInCU: 0xC29B, offset: 0xC29B, size: 0x8, addend: 0x0, symName: __ZNSt3__119__allocator_destroyB7v160006INS_9allocatorINS_6vectorIiNS1_IiEEEEEENS_16reverse_iteratorINS6_IPS4_EEEES9_EEvRT_T0_T1_, symObjAddr: 0x3968, symBinAddr: 0x100006834, symSize: 0x70 }
  - { offsetInCU: 0xC300, offset: 0xC300, size: 0x8, addend: 0x0, symName: __ZNSt3__1neB7v160006INS_16reverse_iteratorIPNS_6vectorIiNS_9allocatorIiEEEEEES7_EEbRKNS1_IT_EERKNS1_IT0_EE, symObjAddr: 0x3A14, symBinAddr: 0x1000068E0, symSize: 0x60 }
  - { offsetInCU: 0xC34C, offset: 0xC34C, size: 0x8, addend: 0x0, symName: __ZNSt3__112__to_addressB7v160006INS_16reverse_iteratorINS1_IPNS_6vectorIiNS_9allocatorIiEEEEEEEEvEENS_5decayIDTclsr19__to_address_helperIT_EE6__callclsr3stdE7declvalIRKSA_EEEEE4typeESC_, symObjAddr: 0x3A74, symBinAddr: 0x100006940, symSize: 0x24 }
  - { offsetInCU: 0xC3AB, offset: 0xC3AB, size: 0x8, addend: 0x0, symName: __ZNSt3__119__allocate_at_leastB7v160006INS_9allocatorIiEEEENS_19__allocation_resultINS_16allocator_traitsIT_E7pointerEEERS5_m, symObjAddr: 0x4718, symBinAddr: 0x1000075E4, symSize: 0x40 }
  - { offsetInCU: 0xC3EE, offset: 0xC3EE, size: 0x8, addend: 0x0, symName: __ZNSt3__142__uninitialized_allocator_move_if_noexceptB7v160006INS_9allocatorIiEENS_16reverse_iteratorIPiEES5_ivEET1_RT_T0_S9_S6_, symObjAddr: 0x4998, symBinAddr: 0x100007864, symSize: 0x78 }
  - { offsetInCU: 0xC46B, offset: 0xC46B, size: 0x8, addend: 0x0, symName: __ZNSt3__14swapB7v160006IPiEENS_9enable_ifIXaasr21is_move_constructibleIT_EE5valuesr18is_move_assignableIS3_EE5valueEvE4typeERS3_S6_, symObjAddr: 0x4A5C, symBinAddr: 0x100007928, symSize: 0x3C }
  - { offsetInCU: 0xC4BC, offset: 0xC4BC, size: 0x8, addend: 0x0, symName: __ZNSt3__125__debug_db_invalidate_allB7v160006INS_6vectorIiNS_9allocatorIiEEEEEEvPT_, symObjAddr: 0x4B44, symBinAddr: 0x100007A10, symSize: 0x10 }
  - { offsetInCU: 0xC4ED, offset: 0xC4ED, size: 0x8, addend: 0x0, symName: __ZNSt3__14moveB7v160006INS_16reverse_iteratorIPiEES3_EET0_T_S5_S4_, symObjAddr: 0x4B54, symBinAddr: 0x100007A20, symSize: 0x78 }
  - { offsetInCU: 0xC547, offset: 0xC547, size: 0x8, addend: 0x0, symName: __ZNSt3__16__moveB7v160006INS_17_ClassicAlgPolicyENS_16reverse_iteratorIPiEES4_S4_EENS_4pairIT0_T2_EES6_T1_S7_, symObjAddr: 0x4BCC, symBinAddr: 0x100007A98, symSize: 0x64 }
  - { offsetInCU: 0xC5B3, offset: 0xC5B3, size: 0x8, addend: 0x0, symName: __ZNSt3__123__dispatch_copy_or_moveB7v160006INS_17_ClassicAlgPolicyENS_11__move_loopIS1_EENS_14__move_trivialENS_16reverse_iteratorIPiEES7_S7_EENS_4pairIT2_T4_EES9_T3_SA_, symObjAddr: 0x4C30, symBinAddr: 0x100007AFC, symSize: 0x64 }
  - { offsetInCU: 0xC631, offset: 0xC631, size: 0x8, addend: 0x0, symName: __ZNSt3__121__unwrap_and_dispatchB7v160006INS_10__overloadINS_11__move_loopINS_17_ClassicAlgPolicyEEENS_14__move_trivialEEENS_16reverse_iteratorIPiEES9_S9_Li0EEENS_4pairIT0_T2_EESB_T1_SC_, symObjAddr: 0x4C94, symBinAddr: 0x100007B60, symSize: 0x12C }
  - { offsetInCU: 0xC6C1, offset: 0xC6C1, size: 0x8, addend: 0x0, symName: __ZNSt3__114__unwrap_rangeB7v160006INS_16reverse_iteratorIPiEES3_EENS_4pairIT0_S5_EET_S7_, symObjAddr: 0x4DC0, symBinAddr: 0x100007C8C, symSize: 0x84 }
  - { offsetInCU: 0xC83C, offset: 0xC83C, size: 0x8, addend: 0x0, symName: __ZNSt3__113__unwrap_iterB7v160006INS_16reverse_iteratorIPiEENS_18__unwrap_iter_implIS3_Lb0EEELi0EEEDTclsrT0_8__unwrapclsr3stdE7declvalIT_EEEES7_, symObjAddr: 0x4EE4, symBinAddr: 0x100007DB0, symSize: 0x44 }
  - { offsetInCU: 0xC880, offset: 0xC880, size: 0x8, addend: 0x0, symName: __ZNSt3__19make_pairB7v160006INS_16reverse_iteratorIPiEES3_EENS_4pairINS_18__unwrap_ref_decayIT_E4typeENS5_IT0_E4typeEEEOS6_OS9_, symObjAddr: 0x4F28, symBinAddr: 0x100007DF4, symSize: 0x38 }
  - { offsetInCU: 0xC8CF, offset: 0xC8CF, size: 0x8, addend: 0x0, symName: __ZNSt3__114__rewrap_rangeB7v160006INS_16reverse_iteratorIPiEES3_EET_S4_T0_, symObjAddr: 0x4F60, symBinAddr: 0x100007E2C, symSize: 0x5C }
  - { offsetInCU: 0xC91B, offset: 0xC91B, size: 0x8, addend: 0x0, symName: __ZNSt3__113__rewrap_iterB7v160006INS_16reverse_iteratorIPiEES3_NS_18__unwrap_iter_implIS3_Lb0EEEEET_S6_T0_, symObjAddr: 0x4FBC, symBinAddr: 0x100007E88, symSize: 0x74 }
  - { offsetInCU: 0xC970, offset: 0xC970, size: 0x8, addend: 0x0, symName: __ZNSt3__1neB7v160006IPiS1_EEbRKNS_16reverse_iteratorIT_EERKNS2_IT0_EE, symObjAddr: 0x5030, symBinAddr: 0x100007EFC, symSize: 0x48 }
  - { offsetInCU: 0xCAA1, offset: 0xCAA1, size: 0x8, addend: 0x0, symName: __ZNSt3__119__debug_db_insert_cB7v160006INS_6vectorINS_5tupleIJiiiiEEENS_9allocatorIS3_EEEEEEvPT_, symObjAddr: 0x5608, symBinAddr: 0x1000084D4, symSize: 0x10 }
  - { offsetInCU: 0xCAD2, offset: 0xCAD2, size: 0x8, addend: 0x0, symName: __ZNSt3__19push_heapB7v160006INS_11__wrap_iterIPNS_5tupleIJiiiiEEEEENS_7greaterIvEEEEvT_S8_T0_, symObjAddr: 0x5804, symBinAddr: 0x1000086D0, symSize: 0x40 }
  - { offsetInCU: 0xCB4C, offset: 0xCB4C, size: 0x8, addend: 0x0, symName: __ZNSt3__119__allocate_at_leastB7v160006INS_9allocatorINS_5tupleIJiiiiEEEEEEENS_19__allocation_resultINS_16allocator_traitsIT_E7pointerEEERS7_m, symObjAddr: 0x6240, symBinAddr: 0x10000910C, symSize: 0x40 }
  - { offsetInCU: 0xCB8F, offset: 0xCB8F, size: 0x8, addend: 0x0, symName: __ZNSt3__142__uninitialized_allocator_move_if_noexceptB7v160006INS_9allocatorINS_5tupleIJiiiiEEEEENS_16reverse_iteratorIPS3_EES7_S7_EET2_RT_T0_T1_S8_, symObjAddr: 0x63F4, symBinAddr: 0x1000092C0, symSize: 0x12C }
  - { offsetInCU: 0xCC2F, offset: 0xCC2F, size: 0x8, addend: 0x0, symName: __ZNSt3__14swapB7v160006IPNS_5tupleIJiiiiEEEEENS_9enable_ifIXaasr21is_move_constructibleIT_EE5valuesr18is_move_assignableIS5_EE5valueEvE4typeERS5_S8_, symObjAddr: 0x656C, symBinAddr: 0x100009438, symSize: 0x3C }
  - { offsetInCU: 0xCC80, offset: 0xCC80, size: 0x8, addend: 0x0, symName: __ZNSt3__125__debug_db_invalidate_allB7v160006INS_6vectorINS_5tupleIJiiiiEEENS_9allocatorIS3_EEEEEEvPT_, symObjAddr: 0x6654, symBinAddr: 0x100009520, symSize: 0x10 }
  - { offsetInCU: 0xCCB1, offset: 0xCCB1, size: 0x8, addend: 0x0, symName: __ZNSt3__122__make_exception_guardB7v160006INS_29_AllocatorDestroyRangeReverseINS_9allocatorINS_5tupleIJiiiiEEEEENS_16reverse_iteratorIPS4_EEEEEENS_28__exception_guard_exceptionsIT_EESB_, symObjAddr: 0x6664, symBinAddr: 0x100009530, symSize: 0x4C }
  - { offsetInCU: 0xCCE7, offset: 0xCCE7, size: 0x8, addend: 0x0, symName: __ZNSt3__1neB7v160006IPNS_5tupleIJiiiiEEES3_EEbRKNS_16reverse_iteratorIT_EERKNS4_IT0_EE, symObjAddr: 0x66F4, symBinAddr: 0x1000095C0, symSize: 0x48 }
  - { offsetInCU: 0xCD33, offset: 0xCD33, size: 0x8, addend: 0x0, symName: __ZNSt3__112__to_addressB7v160006INS_16reverse_iteratorIPNS_5tupleIJiiiiEEEEEvEENS_5decayIDTclsr19__to_address_helperIT_EE6__callclsr3stdE7declvalIRKS7_EEEEE4typeES9_, symObjAddr: 0x6770, symBinAddr: 0x10000963C, symSize: 0x24 }
  - { offsetInCU: 0xCD92, offset: 0xCD92, size: 0x8, addend: 0x0, symName: __ZNSt3__119__allocator_destroyB7v160006INS_9allocatorINS_5tupleIJiiiiEEEEENS_16reverse_iteratorINS5_IPS3_EEEES8_EEvRT_T0_T1_, symObjAddr: 0x6A48, symBinAddr: 0x100009914, symSize: 0x70 }
  - { offsetInCU: 0xCDF7, offset: 0xCDF7, size: 0x8, addend: 0x0, symName: __ZNSt3__1neB7v160006INS_16reverse_iteratorIPNS_5tupleIJiiiiEEEEES5_EEbRKNS1_IT_EERKNS1_IT0_EE, symObjAddr: 0x6AF4, symBinAddr: 0x1000099C0, symSize: 0x60 }
  - { offsetInCU: 0xCE43, offset: 0xCE43, size: 0x8, addend: 0x0, symName: __ZNSt3__112__to_addressB7v160006INS_16reverse_iteratorINS1_IPNS_5tupleIJiiiiEEEEEEEvEENS_5decayIDTclsr19__to_address_helperIT_EE6__callclsr3stdE7declvalIRKS8_EEEEE4typeESA_, symObjAddr: 0x6B54, symBinAddr: 0x100009A20, symSize: 0x24 }
  - { offsetInCU: 0xCEA2, offset: 0xCEA2, size: 0x8, addend: 0x0, symName: __ZNSt3__111__push_heapB7v160006INS_17_ClassicAlgPolicyENS_11__wrap_iterIPNS_5tupleIJiiiiEEEEENS_7greaterIvEEEEvT0_S9_RT1_, symObjAddr: 0x6EBC, symBinAddr: 0x100009D88, symSize: 0x5C }
  - { offsetInCU: 0xCF0F, offset: 0xCF0F, size: 0x8, addend: 0x0, symName: __ZNSt3__1miB7v160006IPNS_5tupleIJiiiiEEES3_EEDTmicldtfp_4baseEcldtfp0_4baseEERKNS_11__wrap_iterIT_EERKNS5_IT0_EE, symObjAddr: 0x6F18, symBinAddr: 0x100009DE4, symSize: 0x48 }
  - { offsetInCU: 0xCF5B, offset: 0xCF5B, size: 0x8, addend: 0x0, symName: __ZNSt3__19__sift_upB7v160006INS_17_ClassicAlgPolicyERNS_7greaterIvEENS_11__wrap_iterIPNS_5tupleIJiiiiEEEEEEEvT1_SA_OT0_NS_15iterator_traitsISA_E15difference_typeE, symObjAddr: 0x6F60, symBinAddr: 0x100009E2C, symSize: 0x15C }
  - { offsetInCU: 0xD02F, offset: 0xD02F, size: 0x8, addend: 0x0, symName: __ZNSt3__1gtB7v160006IJiiiiEJiiiiEEEbRKNS_5tupleIJDpT_EEERKNS1_IJDpT0_EEE, symObjAddr: 0x7208, symBinAddr: 0x10000A0D4, symSize: 0x30 }
  - { offsetInCU: 0xD0A0, offset: 0xD0A0, size: 0x8, addend: 0x0, symName: __ZNSt3__1ltB7v160006IJiiiiEJiiiiEEEbRKNS_5tupleIJDpT_EEERKNS1_IJDpT0_EEE, symObjAddr: 0x7238, symBinAddr: 0x10000A104, symSize: 0x34 }
  - { offsetInCU: 0xD158, offset: 0xD158, size: 0x8, addend: 0x0, symName: __ZNSt3__13getB7v160006ILm0EJiiiiEEERKNS_13tuple_elementIXT_ENS_5tupleIJDpT0_EEEE4typeERKS5_, symObjAddr: 0x7344, symBinAddr: 0x10000A210, symSize: 0x24 }
  - { offsetInCU: 0xD1F1, offset: 0xD1F1, size: 0x8, addend: 0x0, symName: __ZNSt3__13getB7v160006ILm1EJiiiiEEERKNS_13tuple_elementIXT_ENS_5tupleIJDpT0_EEEE4typeERKS5_, symObjAddr: 0x7458, symBinAddr: 0x10000A324, symSize: 0x28 }
  - { offsetInCU: 0xD28A, offset: 0xD28A, size: 0x8, addend: 0x0, symName: __ZNSt3__13getB7v160006ILm2EJiiiiEEERKNS_13tuple_elementIXT_ENS_5tupleIJDpT0_EEEE4typeERKS5_, symObjAddr: 0x7570, symBinAddr: 0x10000A43C, symSize: 0x28 }
  - { offsetInCU: 0xD323, offset: 0xD323, size: 0x8, addend: 0x0, symName: __ZNSt3__13getB7v160006ILm3EJiiiiEEERKNS_13tuple_elementIXT_ENS_5tupleIJDpT0_EEEE4typeERKS5_, symObjAddr: 0x7688, symBinAddr: 0x10000A554, symSize: 0x28 }
  - { offsetInCU: 0xD3BC, offset: 0xD3BC, size: 0x8, addend: 0x0, symName: __ZNSt3__127__memberwise_forward_assignB7v160006INS_5tupleIJiiiiEEES2_JiiiiEJLm0ELm1ELm2ELm3EEEEvRT_OT0_NS_13__tuple_typesIJDpT1_EEENS_15__tuple_indicesIJXspT2_EEEE, symObjAddr: 0x76E8, symBinAddr: 0x10000A5B4, symSize: 0xE0 }
  - { offsetInCU: 0xD455, offset: 0xD455, size: 0x8, addend: 0x0, symName: __ZNSt3__19__swallowB7v160006IJiiiiEEEvDpOT_, symObjAddr: 0x77C8, symBinAddr: 0x10000A694, symSize: 0x1C }
  - { offsetInCU: 0xD4B6, offset: 0xD4B6, size: 0x8, addend: 0x0, symName: __ZNSt3__13getB7v160006ILm0EJiiiiEEERNS_13tuple_elementIXT_ENS_5tupleIJDpT0_EEEE4typeERS5_, symObjAddr: 0x77E4, symBinAddr: 0x10000A6B0, symSize: 0x24 }
  - { offsetInCU: 0xD508, offset: 0xD508, size: 0x8, addend: 0x0, symName: __ZNSt3__13getB7v160006ILm1EJiiiiEEERNS_13tuple_elementIXT_ENS_5tupleIJDpT0_EEEE4typeERS5_, symObjAddr: 0x7808, symBinAddr: 0x10000A6D4, symSize: 0x28 }
  - { offsetInCU: 0xD55A, offset: 0xD55A, size: 0x8, addend: 0x0, symName: __ZNSt3__13getB7v160006ILm2EJiiiiEEERNS_13tuple_elementIXT_ENS_5tupleIJDpT0_EEEE4typeERS5_, symObjAddr: 0x7830, symBinAddr: 0x10000A6FC, symSize: 0x28 }
  - { offsetInCU: 0xD5AC, offset: 0xD5AC, size: 0x8, addend: 0x0, symName: __ZNSt3__13getB7v160006ILm3EJiiiiEEERNS_13tuple_elementIXT_ENS_5tupleIJDpT0_EEEE4typeERS5_, symObjAddr: 0x7858, symBinAddr: 0x10000A724, symSize: 0x28 }
  - { offsetInCU: 0xD5FE, offset: 0xD5FE, size: 0x8, addend: 0x0, symName: __ZNSt3__124__memberwise_copy_assignB7v160006INS_5tupleIJRiS2_S2_S2_EEENS1_IJiiiiEEEJLm0ELm1ELm2ELm3EEEEvRT_RKT0_NS_15__tuple_indicesIJXspT1_EEEE, symObjAddr: 0x79A4, symBinAddr: 0x10000A870, symSize: 0xE0 }
  - { offsetInCU: 0xD672, offset: 0xD672, size: 0x8, addend: 0x0, symName: __ZNSt3__13getB7v160006ILm0EJRiS1_S1_S1_EEERNS_13tuple_elementIXT_ENS_5tupleIJDpT0_EEEE4typeERS6_, symObjAddr: 0x7A84, symBinAddr: 0x10000A950, symSize: 0x24 }
  - { offsetInCU: 0xD6C3, offset: 0xD6C3, size: 0x8, addend: 0x0, symName: __ZNSt3__13getB7v160006ILm1EJRiS1_S1_S1_EEERNS_13tuple_elementIXT_ENS_5tupleIJDpT0_EEEE4typeERS6_, symObjAddr: 0x7AA8, symBinAddr: 0x10000A974, symSize: 0x28 }
  - { offsetInCU: 0xD714, offset: 0xD714, size: 0x8, addend: 0x0, symName: __ZNSt3__13getB7v160006ILm2EJRiS1_S1_S1_EEERNS_13tuple_elementIXT_ENS_5tupleIJDpT0_EEEE4typeERS6_, symObjAddr: 0x7AD0, symBinAddr: 0x10000A99C, symSize: 0x28 }
  - { offsetInCU: 0xD765, offset: 0xD765, size: 0x8, addend: 0x0, symName: __ZNSt3__13getB7v160006ILm3EJRiS1_S1_S1_EEERNS_13tuple_elementIXT_ENS_5tupleIJDpT0_EEEE4typeERS6_, symObjAddr: 0x7AF8, symBinAddr: 0x10000A9C4, symSize: 0x28 }
  - { offsetInCU: 0xD7B6, offset: 0xD7B6, size: 0x8, addend: 0x0, symName: __ZNSt3__18pop_heapB7v160006INS_11__wrap_iterIPNS_5tupleIJiiiiEEEEENS_7greaterIvEEEEvT_S8_T0_, symObjAddr: 0x7B80, symBinAddr: 0x10000AA4C, symSize: 0x58 }
  - { offsetInCU: 0xD81A, offset: 0xD81A, size: 0x8, addend: 0x0, symName: __ZNSt3__110__pop_heapB7v160006INS_17_ClassicAlgPolicyENS_7greaterIvEENS_11__wrap_iterIPNS_5tupleIJiiiiEEEEEEEvT1_S9_RT0_NS_15iterator_traitsIS9_E15difference_typeE, symObjAddr: 0x7C04, symBinAddr: 0x10000AAD0, symSize: 0x128 }
  - { offsetInCU: 0xD8CB, offset: 0xD8CB, size: 0x8, addend: 0x0, symName: __ZNSt3__1eqB7v160006IPNS_5tupleIJiiiiEEEEEbRKNS_11__wrap_iterIT_EES8_, symObjAddr: 0x7E74, symBinAddr: 0x10000AD40, symSize: 0x48 }
  - { offsetInCU: 0xDCBC, offset: 0xDCBC, size: 0x8, addend: 0x0, symName: __ZSt28__throw_bad_array_new_lengthB7v160006v, symObjAddr: 0x2F1C, symBinAddr: 0x100005DE8, symSize: 0x34 }
  - { offsetInCU: 0xDD09, offset: 0xDD09, size: 0x8, addend: 0x0, symName: _costs, symObjAddr: 0x514A8, symBinAddr: 0x100010028, symSize: 0x0 }
  - { offsetInCU: 0xE081, offset: 0xE081, size: 0x8, addend: 0x0, symName: _graph, symObjAddr: 0x514C0, symBinAddr: 0x100010040, symSize: 0x0 }
  - { offsetInCU: 0xE096, offset: 0xE096, size: 0x8, addend: 0x0, symName: _INF, symObjAddr: 0x8884, symBinAddr: 0x100010020, symSize: 0x0 }
  - { offsetInCU: 0xE0AB, offset: 0xE0AB, size: 0x8, addend: 0x0, symName: _N, symObjAddr: 0x514D8, symBinAddr: 0x100010058, symSize: 0x0 }
  - { offsetInCU: 0xE0C0, offset: 0xE0C0, size: 0x8, addend: 0x0, symName: _T, symObjAddr: 0x514DC, symBinAddr: 0x10001005C, symSize: 0x0 }
  - { offsetInCU: 0xE5DB, offset: 0xE5DB, size: 0x8, addend: 0x0, symName: __ZNSt3__16vectorINS0_IiNS_9allocatorIiEEEENS1_IS3_EEE26__swap_out_circular_bufferERNS_14__split_bufferIS3_RS4_EE, symObjAddr: 0x2524, symBinAddr: 0x1000053F0, symSize: 0x118 }
  - { offsetInCU: 0xE66C, offset: 0xE66C, size: 0x8, addend: 0x0, symName: __ZNSt3__16vectorIiNS_9allocatorIiEEE26__swap_out_circular_bufferERNS_14__split_bufferIiRS2_EE, symObjAddr: 0x429C, symBinAddr: 0x100007168, symSize: 0x118 }
  - { offsetInCU: 0xE6C1, offset: 0xE6C1, size: 0x8, addend: 0x0, symName: __ZNSt3__16vectorINS_5tupleIJiiiiEEENS_9allocatorIS2_EEE26__swap_out_circular_bufferERNS_14__split_bufferIS2_RS4_EE, symObjAddr: 0x5ED8, symBinAddr: 0x100008DA4, symSize: 0x118 }
  - { offsetInCU: 0x10D12, offset: 0x10D12, size: 0x8, addend: 0x0, symName: __ZNSt3__16vectorINS0_IiNS_9allocatorIiEEEENS1_IS3_EEEC1B7v160006Ev, symObjAddr: 0x0, symBinAddr: 0x100002ECC, symSize: 0x2C }
  - { offsetInCU: 0x10D3B, offset: 0x10D3B, size: 0x8, addend: 0x0, symName: __ZNSt3__16vectorINS0_IiNS_9allocatorIiEEEENS1_IS3_EEED1B7v160006Ev, symObjAddr: 0x2C, symBinAddr: 0x100002EF8, symSize: 0x2C }
  - { offsetInCU: 0x10D63, offset: 0x10D63, size: 0x8, addend: 0x0, symName: __Z5inputv, symObjAddr: 0x58, symBinAddr: 0x100002F24, symSize: 0x11C }
  - { offsetInCU: 0x10DEA, offset: 0x10DEA, size: 0x8, addend: 0x0, symName: __ZNSt3__16vectorINS0_IiNS_9allocatorIiEEEENS1_IS3_EEE6resizeEm, symObjAddr: 0x174, symBinAddr: 0x100003040, symSize: 0x9C }
  - { offsetInCU: 0x10E2F, offset: 0x10E2F, size: 0x8, addend: 0x0, symName: __ZNSt3__16vectorINS0_IiNS_9allocatorIiEEEENS1_IS3_EEEixB7v160006Em, symObjAddr: 0x210, symBinAddr: 0x1000030DC, symSize: 0x2C }
  - { offsetInCU: 0x10E64, offset: 0x10E64, size: 0x8, addend: 0x0, symName: __ZNSt3__16vectorIiNS_9allocatorIiEEE6resizeEm, symObjAddr: 0x23C, symBinAddr: 0x100003108, symSize: 0x94 }
  - { offsetInCU: 0x10EA8, offset: 0x10EA8, size: 0x8, addend: 0x0, symName: __ZNSt3__16vectorIiNS_9allocatorIiEEE5beginB7v160006Ev, symObjAddr: 0x2D0, symBinAddr: 0x10000319C, symSize: 0x30 }
  - { offsetInCU: 0x10ECE, offset: 0x10ECE, size: 0x8, addend: 0x0, symName: __ZNSt3__16vectorIiNS_9allocatorIiEEE3endB7v160006Ev, symObjAddr: 0x300, symBinAddr: 0x1000031CC, symSize: 0x30 }
  - { offsetInCU: 0x10EF5, offset: 0x10EF5, size: 0x8, addend: 0x0, symName: __ZNKSt3__111__wrap_iterIPiEdeB7v160006Ev, symObjAddr: 0x364, symBinAddr: 0x100003230, symSize: 0x18 }
  - { offsetInCU: 0x10F1A, offset: 0x10F1A, size: 0x8, addend: 0x0, symName: __ZNSt3__111__wrap_iterIPiEppB7v160006Ev, symObjAddr: 0x37C, symBinAddr: 0x100003248, symSize: 0x20 }
  - { offsetInCU: 0x10F3E, offset: 0x10F3E, size: 0x8, addend: 0x0, symName: __Z5solvev, symObjAddr: 0x39C, symBinAddr: 0x100003268, symSize: 0x41C }
  - { offsetInCU: 0x11102, offset: 0x11102, size: 0x8, addend: 0x0, symName: __ZNSt3__114priority_queueINS_5tupleIJiiiiEEENS_6vectorIS2_NS_9allocatorIS2_EEEENS_7greaterIvEEEC1B7v160006Ev, symObjAddr: 0x7B8, symBinAddr: 0x100003684, symSize: 0x2C }
  - { offsetInCU: 0x1112A, offset: 0x1112A, size: 0x8, addend: 0x0, symName: __ZNSt3__16vectorINS0_IiNS_9allocatorIiEEEENS1_IS3_EEE5beginB7v160006Ev, symObjAddr: 0x7E4, symBinAddr: 0x1000036B0, symSize: 0x30 }
  - { offsetInCU: 0x11150, offset: 0x11150, size: 0x8, addend: 0x0, symName: __ZNSt3__16vectorINS0_IiNS_9allocatorIiEEEENS1_IS3_EEE3endB7v160006Ev, symObjAddr: 0x814, symBinAddr: 0x1000036E0, symSize: 0x30 }
  - { offsetInCU: 0x11177, offset: 0x11177, size: 0x8, addend: 0x0, symName: __ZNKSt3__111__wrap_iterIPNS_6vectorIiNS_9allocatorIiEEEEEdeB7v160006Ev, symObjAddr: 0x878, symBinAddr: 0x100003744, symSize: 0x18 }
  - { offsetInCU: 0x1119C, offset: 0x1119C, size: 0x8, addend: 0x0, symName: __ZNSt3__111__wrap_iterIPNS_6vectorIiNS_9allocatorIiEEEEEppB7v160006Ev, symObjAddr: 0x890, symBinAddr: 0x10000375C, symSize: 0x20 }
  - { offsetInCU: 0x111C1, offset: 0x111C1, size: 0x8, addend: 0x0, symName: __ZNSt3__16vectorIiNS_9allocatorIiEEEixB7v160006Em, symObjAddr: 0x8B0, symBinAddr: 0x10000377C, symSize: 0x24 }
  - { offsetInCU: 0x111FB, offset: 0x111FB, size: 0x8, addend: 0x0, symName: __ZNSt3__114priority_queueINS_5tupleIJiiiiEEENS_6vectorIS2_NS_9allocatorIS2_EEEENS_7greaterIvEEE7emplaceIJiiiiEEEvDpOT_, symObjAddr: 0x8D4, symBinAddr: 0x1000037A0, symSize: 0x70 }
  - { offsetInCU: 0x11278, offset: 0x11278, size: 0x8, addend: 0x0, symName: __ZNKSt3__114priority_queueINS_5tupleIJiiiiEEENS_6vectorIS2_NS_9allocatorIS2_EEEENS_7greaterIvEEE5emptyB7v160006Ev, symObjAddr: 0x944, symBinAddr: 0x100003810, symSize: 0x28 }
  - { offsetInCU: 0x1129D, offset: 0x1129D, size: 0x8, addend: 0x0, symName: __ZNKSt3__114priority_queueINS_5tupleIJiiiiEEENS_6vectorIS2_NS_9allocatorIS2_EEEENS_7greaterIvEEE3topB7v160006Ev, symObjAddr: 0x96C, symBinAddr: 0x100003838, symSize: 0x24 }
  - { offsetInCU: 0x11371, offset: 0x11371, size: 0x8, addend: 0x0, symName: __ZNSt3__15tupleIJRiS1_S1_S1_EEaSB7v160006IJiiiiELi0EEERS2_RKNS0_IJDpT_EEE, symObjAddr: 0x9D8, symBinAddr: 0x1000038A4, symSize: 0x3C }
  - { offsetInCU: 0x113C4, offset: 0x113C4, size: 0x8, addend: 0x0, symName: __ZNSt3__114priority_queueINS_5tupleIJiiiiEEENS_6vectorIS2_NS_9allocatorIS2_EEEENS_7greaterIvEEE3popEv, symObjAddr: 0xA14, symBinAddr: 0x1000038E0, symSize: 0x50 }
  - { offsetInCU: 0x113EA, offset: 0x113EA, size: 0x8, addend: 0x0, symName: __ZNSt3__114priority_queueINS_5tupleIJiiiiEEENS_6vectorIS2_NS_9allocatorIS2_EEEENS_7greaterIvEEE7emplaceIJRiSB_SB_SB_EEEvDpOT_, symObjAddr: 0xA90, symBinAddr: 0x10000395C, symSize: 0x70 }
  - { offsetInCU: 0x11467, offset: 0x11467, size: 0x8, addend: 0x0, symName: __ZNSt3__114priority_queueINS_5tupleIJiiiiEEENS_6vectorIS2_NS_9allocatorIS2_EEEENS_7greaterIvEEED1Ev, symObjAddr: 0xB00, symBinAddr: 0x1000039CC, symSize: 0x2C }
  - { offsetInCU: 0x11493, offset: 0x11493, size: 0x8, addend: 0x0, symName: __Z6outputv, symObjAddr: 0xB2C, symBinAddr: 0x1000039F8, symSize: 0xD4 }
  - { offsetInCU: 0x114AD, offset: 0x114AD, size: 0x8, addend: 0x0, symName: _main, symObjAddr: 0xC00, symBinAddr: 0x100003ACC, symSize: 0x74 }
  - { offsetInCU: 0x11572, offset: 0x11572, size: 0x8, addend: 0x0, symName: __ZNSt3__19basic_iosIcNS_11char_traitsIcEEE3tieB7v160006EPNS_13basic_ostreamIcS2_EE, symObjAddr: 0xC74, symBinAddr: 0x100003B40, symSize: 0x2C }
  - { offsetInCU: 0x115B7, offset: 0x115B7, size: 0x8, addend: 0x0, symName: __ZNKSt3__111__wrap_iterIPiE4baseB7v160006Ev, symObjAddr: 0xCE8, symBinAddr: 0x100003BB4, symSize: 0x18 }
  - { offsetInCU: 0x115DC, offset: 0x115DC, size: 0x8, addend: 0x0, symName: __ZNKSt3__111__wrap_iterIPNS_6vectorIiNS_9allocatorIiEEEEE4baseB7v160006Ev, symObjAddr: 0xD48, symBinAddr: 0x100003C14, symSize: 0x18 }
  - { offsetInCU: 0x11601, offset: 0x11601, size: 0x8, addend: 0x0, symName: __ZNSt3__15tupleIJRiS1_S1_S1_EEC1B7v160006INS_4_AndELi0EEES1_S1_S1_S1_, symObjAddr: 0xD60, symBinAddr: 0x100003C2C, symSize: 0x4C }
  - { offsetInCU: 0x11675, offset: 0x11675, size: 0x8, addend: 0x0, symName: __ZNSt3__15tupleIJRiS1_S1_S1_EEC2B7v160006INS_4_AndELi0EEES1_S1_S1_S1_, symObjAddr: 0xDAC, symBinAddr: 0x100003C78, symSize: 0x4C }
  - { offsetInCU: 0x116E9, offset: 0x116E9, size: 0x8, addend: 0x0, symName: __ZNSt3__112__tuple_implINS_15__tuple_indicesIJLm0ELm1ELm2ELm3EEEEJRiS3_S3_S3_EEC1B7v160006IJLm0ELm1ELm2ELm3EEJS3_S3_S3_S3_EJEJEJS3_S3_S3_S3_EEENS1_IJXspT_EEEENS_13__tuple_typesIJDpT0_EEENS1_IJXspT1_EEEENS7_IJDpT2_EEEDpOT3_, symObjAddr: 0xDF8, symBinAddr: 0x100003CC4, symSize: 0x4C }
  - { offsetInCU: 0x117D6, offset: 0x117D6, size: 0x8, addend: 0x0, symName: __ZNSt3__112__tuple_implINS_15__tuple_indicesIJLm0ELm1ELm2ELm3EEEEJRiS3_S3_S3_EEC2B7v160006IJLm0ELm1ELm2ELm3EEJS3_S3_S3_S3_EJEJEJS3_S3_S3_S3_EEENS1_IJXspT_EEEENS_13__tuple_typesIJDpT0_EEENS1_IJXspT1_EEEENS7_IJDpT2_EEEDpOT3_, symObjAddr: 0xE44, symBinAddr: 0x100003D10, symSize: 0x70 }
  - { offsetInCU: 0x118C3, offset: 0x118C3, size: 0x8, addend: 0x0, symName: __ZNSt3__112__tuple_leafILm0ERiLb0EEC2B7v160006IS1_vEEOT_, symObjAddr: 0xEB4, symBinAddr: 0x100003D80, symSize: 0x20 }
  - { offsetInCU: 0x11905, offset: 0x11905, size: 0x8, addend: 0x0, symName: __ZNSt3__112__tuple_leafILm1ERiLb0EEC2B7v160006IS1_vEEOT_, symObjAddr: 0xED4, symBinAddr: 0x100003DA0, symSize: 0x20 }
  - { offsetInCU: 0x11947, offset: 0x11947, size: 0x8, addend: 0x0, symName: __ZNSt3__112__tuple_leafILm2ERiLb0EEC2B7v160006IS1_vEEOT_, symObjAddr: 0xEF4, symBinAddr: 0x100003DC0, symSize: 0x20 }
  - { offsetInCU: 0x11989, offset: 0x11989, size: 0x8, addend: 0x0, symName: __ZNSt3__112__tuple_leafILm3ERiLb0EEC2B7v160006IS1_vEEOT_, symObjAddr: 0xF14, symBinAddr: 0x100003DE0, symSize: 0x20 }
  - { offsetInCU: 0x119D5, offset: 0x119D5, size: 0x8, addend: 0x0, symName: __ZNKSt3__16__lessIiiEclB7v160006ERKiS3_, symObjAddr: 0xF88, symBinAddr: 0x100003E54, symSize: 0x34 }
  - { offsetInCU: 0x11A16, offset: 0x11A16, size: 0x8, addend: 0x0, symName: __ZNSt3__114priority_queueINS_5tupleIJiiiiEEENS_6vectorIS2_NS_9allocatorIS2_EEEENS_7greaterIvEEED2Ev, symObjAddr: 0xFBC, symBinAddr: 0x100003E88, symSize: 0x2C }
  - { offsetInCU: 0x11A42, offset: 0x11A42, size: 0x8, addend: 0x0, symName: __ZNSt3__16vectorINS_5tupleIJiiiiEEENS_9allocatorIS2_EEED1B7v160006Ev, symObjAddr: 0xFE8, symBinAddr: 0x100003EB4, symSize: 0x2C }
  - { offsetInCU: 0x11A6B, offset: 0x11A6B, size: 0x8, addend: 0x0, symName: __ZNSt3__16vectorINS_5tupleIJiiiiEEENS_9allocatorIS2_EEED2B7v160006Ev, symObjAddr: 0x1014, symBinAddr: 0x100003EE0, symSize: 0x44 }
  - { offsetInCU: 0x11A94, offset: 0x11A94, size: 0x8, addend: 0x0, symName: __ZNSt3__16vectorINS_5tupleIJiiiiEEENS_9allocatorIS2_EEE16__destroy_vectorC1ERS5_, symObjAddr: 0x1058, symBinAddr: 0x100003F24, symSize: 0x34 }
  - { offsetInCU: 0x11ACC, offset: 0x11ACC, size: 0x8, addend: 0x0, symName: __ZNSt3__16vectorINS_5tupleIJiiiiEEENS_9allocatorIS2_EEE16__destroy_vectorclB7v160006Ev, symObjAddr: 0x1098, symBinAddr: 0x100003F64, symSize: 0x9C }
  - { offsetInCU: 0x11AF1, offset: 0x11AF1, size: 0x8, addend: 0x0, symName: __ZNSt3__16vectorINS_5tupleIJiiiiEEENS_9allocatorIS2_EEE16__destroy_vectorC2ERS5_, symObjAddr: 0x1134, symBinAddr: 0x100004000, symSize: 0x20 }
  - { offsetInCU: 0x11B29, offset: 0x11B29, size: 0x8, addend: 0x0, symName: __ZNKSt3__16vectorINS_5tupleIJiiiiEEENS_9allocatorIS2_EEE17__annotate_deleteB7v160006Ev, symObjAddr: 0x1154, symBinAddr: 0x100004020, symSize: 0xB8 }
  - { offsetInCU: 0x11B4E, offset: 0x11B4E, size: 0x8, addend: 0x0, symName: __ZNSt3__16vectorINS_5tupleIJiiiiEEENS_9allocatorIS2_EEE7__clearB7v160006Ev, symObjAddr: 0x121C, symBinAddr: 0x1000040E8, symSize: 0x28 }
  - { offsetInCU: 0x11B73, offset: 0x11B73, size: 0x8, addend: 0x0, symName: __ZNSt3__116allocator_traitsINS_9allocatorINS_5tupleIJiiiiEEEEEE10deallocateB7v160006ERS4_PS3_m, symObjAddr: 0x1244, symBinAddr: 0x100004110, symSize: 0x34 }
  - { offsetInCU: 0x11BB5, offset: 0x11BB5, size: 0x8, addend: 0x0, symName: __ZNSt3__16vectorINS_5tupleIJiiiiEEENS_9allocatorIS2_EEE7__allocB7v160006Ev, symObjAddr: 0x1278, symBinAddr: 0x100004144, symSize: 0x28 }
  - { offsetInCU: 0x11BDA, offset: 0x11BDA, size: 0x8, addend: 0x0, symName: __ZNKSt3__16vectorINS_5tupleIJiiiiEEENS_9allocatorIS2_EEE8capacityB7v160006Ev, symObjAddr: 0x12A0, symBinAddr: 0x10000416C, symSize: 0x40 }
  - { offsetInCU: 0x11BFF, offset: 0x11BFF, size: 0x8, addend: 0x0, symName: __ZNKSt3__16vectorINS_5tupleIJiiiiEEENS_9allocatorIS2_EEE31__annotate_contiguous_containerB7v160006EPKvS7_S7_S7_, symObjAddr: 0x12E0, symBinAddr: 0x1000041AC, symSize: 0x20 }
  - { offsetInCU: 0x11C50, offset: 0x11C50, size: 0x8, addend: 0x0, symName: __ZNKSt3__16vectorINS_5tupleIJiiiiEEENS_9allocatorIS2_EEE4dataB7v160006Ev, symObjAddr: 0x1300, symBinAddr: 0x1000041CC, symSize: 0x28 }
  - { offsetInCU: 0x11C75, offset: 0x11C75, size: 0x8, addend: 0x0, symName: __ZNKSt3__16vectorINS_5tupleIJiiiiEEENS_9allocatorIS2_EEE4sizeB7v160006Ev, symObjAddr: 0x1328, symBinAddr: 0x1000041F4, symSize: 0x28 }
  - { offsetInCU: 0x11C9A, offset: 0x11C9A, size: 0x8, addend: 0x0, symName: __ZNSt3__16vectorINS_5tupleIJiiiiEEENS_9allocatorIS2_EEE22__base_destruct_at_endB7v160006EPS2_, symObjAddr: 0x1364, symBinAddr: 0x100004230, symSize: 0x8C }
  - { offsetInCU: 0x11CDD, offset: 0x11CDD, size: 0x8, addend: 0x0, symName: __ZNSt3__116allocator_traitsINS_9allocatorINS_5tupleIJiiiiEEEEEE7destroyB7v160006IS3_vEEvRS4_PT_, symObjAddr: 0x13F0, symBinAddr: 0x1000042BC, symSize: 0x2C }
  - { offsetInCU: 0x11D1A, offset: 0x11D1A, size: 0x8, addend: 0x0, symName: __ZNSt3__19allocatorINS_5tupleIJiiiiEEEE7destroyB7v160006EPS2_, symObjAddr: 0x141C, symBinAddr: 0x1000042E8, symSize: 0x14 }
  - { offsetInCU: 0x11D4D, offset: 0x11D4D, size: 0x8, addend: 0x0, symName: __ZNSt3__19allocatorINS_5tupleIJiiiiEEEE10deallocateB7v160006EPS2_m, symObjAddr: 0x1430, symBinAddr: 0x1000042FC, symSize: 0x40 }
  - { offsetInCU: 0x11D8E, offset: 0x11D8E, size: 0x8, addend: 0x0, symName: __ZNSt3__117__compressed_pairIPNS_5tupleIJiiiiEEENS_9allocatorIS2_EEE6secondB7v160006Ev, symObjAddr: 0x14EC, symBinAddr: 0x1000043B8, symSize: 0x24 }
  - { offsetInCU: 0x11DB3, offset: 0x11DB3, size: 0x8, addend: 0x0, symName: __ZNSt3__122__compressed_pair_elemINS_9allocatorINS_5tupleIJiiiiEEEEELi1ELb1EE5__getB7v160006Ev, symObjAddr: 0x1510, symBinAddr: 0x1000043DC, symSize: 0x14 }
  - { offsetInCU: 0x11DD8, offset: 0x11DD8, size: 0x8, addend: 0x0, symName: __ZNKSt3__16vectorINS_5tupleIJiiiiEEENS_9allocatorIS2_EEE9__end_capB7v160006Ev, symObjAddr: 0x1524, symBinAddr: 0x1000043F0, symSize: 0x28 }
  - { offsetInCU: 0x11DFD, offset: 0x11DFD, size: 0x8, addend: 0x0, symName: __ZNKSt3__117__compressed_pairIPNS_5tupleIJiiiiEEENS_9allocatorIS2_EEE5firstB7v160006Ev, symObjAddr: 0x154C, symBinAddr: 0x100004418, symSize: 0x24 }
  - { offsetInCU: 0x11E22, offset: 0x11E22, size: 0x8, addend: 0x0, symName: __ZNKSt3__122__compressed_pair_elemIPNS_5tupleIJiiiiEEELi0ELb0EE5__getB7v160006Ev, symObjAddr: 0x1570, symBinAddr: 0x10000443C, symSize: 0x14 }
  - { offsetInCU: 0x11E47, offset: 0x11E47, size: 0x8, addend: 0x0, symName: __ZNSt3__16vectorINS0_IiNS_9allocatorIiEEEENS1_IS3_EEEC2B7v160006Ev, symObjAddr: 0x1584, symBinAddr: 0x100004450, symSize: 0x58 }
  - { offsetInCU: 0x11E7A, offset: 0x11E7A, size: 0x8, addend: 0x0, symName: __ZNSt3__117__compressed_pairIPNS_6vectorIiNS_9allocatorIiEEEENS2_IS4_EEEC1B7v160006IDnNS_18__default_init_tagEEEOT_OT0_, symObjAddr: 0x15DC, symBinAddr: 0x1000044A8, symSize: 0x3C }
  - { offsetInCU: 0x11ED1, offset: 0x11ED1, size: 0x8, addend: 0x0, symName: __ZNSt3__117__compressed_pairIPNS_6vectorIiNS_9allocatorIiEEEENS2_IS4_EEEC2B7v160006IDnNS_18__default_init_tagEEEOT_OT0_, symObjAddr: 0x1628, symBinAddr: 0x1000044F4, symSize: 0x40 }
  - { offsetInCU: 0x11F28, offset: 0x11F28, size: 0x8, addend: 0x0, symName: __ZNSt3__122__compressed_pair_elemIPNS_6vectorIiNS_9allocatorIiEEEELi0ELb0EEC2B7v160006IDnvEEOT_, symObjAddr: 0x1668, symBinAddr: 0x100004534, symSize: 0x1C }
  - { offsetInCU: 0x11F69, offset: 0x11F69, size: 0x8, addend: 0x0, symName: __ZNSt3__122__compressed_pair_elemINS_9allocatorINS_6vectorIiNS1_IiEEEEEELi1ELb1EEC2B7v160006ENS_18__default_init_tagE, symObjAddr: 0x1684, symBinAddr: 0x100004550, symSize: 0x2C }
  - { offsetInCU: 0x11F9D, offset: 0x11F9D, size: 0x8, addend: 0x0, symName: __ZNSt3__19allocatorINS_6vectorIiNS0_IiEEEEEC2B7v160006Ev, symObjAddr: 0x16B0, symBinAddr: 0x10000457C, symSize: 0x2C }
  - { offsetInCU: 0x11FC6, offset: 0x11FC6, size: 0x8, addend: 0x0, symName: __ZNSt3__116__non_trivial_ifILb1ENS_9allocatorINS_6vectorIiNS1_IiEEEEEEEC2B7v160006Ev, symObjAddr: 0x16DC, symBinAddr: 0x1000045A8, symSize: 0x14 }
  - { offsetInCU: 0x11FEF, offset: 0x11FEF, size: 0x8, addend: 0x0, symName: __ZNSt3__16vectorINS0_IiNS_9allocatorIiEEEENS1_IS3_EEED2B7v160006Ev, symObjAddr: 0x16F0, symBinAddr: 0x1000045BC, symSize: 0x44 }
  - { offsetInCU: 0x12018, offset: 0x12018, size: 0x8, addend: 0x0, symName: __ZNSt3__16vectorINS0_IiNS_9allocatorIiEEEENS1_IS3_EEE16__destroy_vectorC1ERS5_, symObjAddr: 0x1734, symBinAddr: 0x100004600, symSize: 0x34 }
  - { offsetInCU: 0x12050, offset: 0x12050, size: 0x8, addend: 0x0, symName: __ZNSt3__16vectorINS0_IiNS_9allocatorIiEEEENS1_IS3_EEE16__destroy_vectorclB7v160006Ev, symObjAddr: 0x1768, symBinAddr: 0x100004634, symSize: 0x9C }
  - { offsetInCU: 0x12075, offset: 0x12075, size: 0x8, addend: 0x0, symName: __ZNSt3__16vectorINS0_IiNS_9allocatorIiEEEENS1_IS3_EEE16__destroy_vectorC2ERS5_, symObjAddr: 0x1804, symBinAddr: 0x1000046D0, symSize: 0x20 }
  - { offsetInCU: 0x120AD, offset: 0x120AD, size: 0x8, addend: 0x0, symName: __ZNKSt3__16vectorINS0_IiNS_9allocatorIiEEEENS1_IS3_EEE17__annotate_deleteB7v160006Ev, symObjAddr: 0x1824, symBinAddr: 0x1000046F0, symSize: 0xD4 }
  - { offsetInCU: 0x120D2, offset: 0x120D2, size: 0x8, addend: 0x0, symName: __ZNSt3__16vectorINS0_IiNS_9allocatorIiEEEENS1_IS3_EEE7__clearB7v160006Ev, symObjAddr: 0x1908, symBinAddr: 0x1000047D4, symSize: 0x28 }
  - { offsetInCU: 0x120F7, offset: 0x120F7, size: 0x8, addend: 0x0, symName: __ZNSt3__116allocator_traitsINS_9allocatorINS_6vectorIiNS1_IiEEEEEEE10deallocateB7v160006ERS5_PS4_m, symObjAddr: 0x1930, symBinAddr: 0x1000047FC, symSize: 0x34 }
  - { offsetInCU: 0x12139, offset: 0x12139, size: 0x8, addend: 0x0, symName: __ZNSt3__16vectorINS0_IiNS_9allocatorIiEEEENS1_IS3_EEE7__allocB7v160006Ev, symObjAddr: 0x1964, symBinAddr: 0x100004830, symSize: 0x28 }
  - { offsetInCU: 0x1215E, offset: 0x1215E, size: 0x8, addend: 0x0, symName: __ZNKSt3__16vectorINS0_IiNS_9allocatorIiEEEENS1_IS3_EEE8capacityB7v160006Ev, symObjAddr: 0x198C, symBinAddr: 0x100004858, symSize: 0x40 }
  - { offsetInCU: 0x12183, offset: 0x12183, size: 0x8, addend: 0x0, symName: __ZNKSt3__16vectorINS0_IiNS_9allocatorIiEEEENS1_IS3_EEE31__annotate_contiguous_containerB7v160006EPKvS7_S7_S7_, symObjAddr: 0x19CC, symBinAddr: 0x100004898, symSize: 0x20 }
  - { offsetInCU: 0x121D4, offset: 0x121D4, size: 0x8, addend: 0x0, symName: __ZNKSt3__16vectorINS0_IiNS_9allocatorIiEEEENS1_IS3_EEE4dataB7v160006Ev, symObjAddr: 0x19EC, symBinAddr: 0x1000048B8, symSize: 0x28 }
  - { offsetInCU: 0x121F9, offset: 0x121F9, size: 0x8, addend: 0x0, symName: __ZNKSt3__16vectorINS0_IiNS_9allocatorIiEEEENS1_IS3_EEE4sizeB7v160006Ev, symObjAddr: 0x1A14, symBinAddr: 0x1000048E0, symSize: 0x28 }
  - { offsetInCU: 0x1221E, offset: 0x1221E, size: 0x8, addend: 0x0, symName: __ZNSt3__16vectorINS0_IiNS_9allocatorIiEEEENS1_IS3_EEE22__base_destruct_at_endB7v160006EPS3_, symObjAddr: 0x1A50, symBinAddr: 0x10000491C, symSize: 0x8C }
  - { offsetInCU: 0x12261, offset: 0x12261, size: 0x8, addend: 0x0, symName: __ZNSt3__116allocator_traitsINS_9allocatorINS_6vectorIiNS1_IiEEEEEEE7destroyB7v160006IS4_vEEvRS5_PT_, symObjAddr: 0x1ADC, symBinAddr: 0x1000049A8, symSize: 0x2C }
  - { offsetInCU: 0x1229E, offset: 0x1229E, size: 0x8, addend: 0x0, symName: __ZNSt3__19allocatorINS_6vectorIiNS0_IiEEEEE7destroyB7v160006EPS3_, symObjAddr: 0x1B08, symBinAddr: 0x1000049D4, symSize: 0x28 }
  - { offsetInCU: 0x122D1, offset: 0x122D1, size: 0x8, addend: 0x0, symName: __ZNSt3__16vectorIiNS_9allocatorIiEEED1B7v160006Ev, symObjAddr: 0x1B30, symBinAddr: 0x1000049FC, symSize: 0x2C }
  - { offsetInCU: 0x122FA, offset: 0x122FA, size: 0x8, addend: 0x0, symName: __ZNSt3__16vectorIiNS_9allocatorIiEEED2B7v160006Ev, symObjAddr: 0x1B5C, symBinAddr: 0x100004A28, symSize: 0x44 }
  - { offsetInCU: 0x12323, offset: 0x12323, size: 0x8, addend: 0x0, symName: __ZNSt3__16vectorIiNS_9allocatorIiEEE16__destroy_vectorC1ERS3_, symObjAddr: 0x1BA0, symBinAddr: 0x100004A6C, symSize: 0x34 }
  - { offsetInCU: 0x1235B, offset: 0x1235B, size: 0x8, addend: 0x0, symName: __ZNSt3__16vectorIiNS_9allocatorIiEEE16__destroy_vectorclB7v160006Ev, symObjAddr: 0x1BD4, symBinAddr: 0x100004AA0, symSize: 0x9C }
  - { offsetInCU: 0x12380, offset: 0x12380, size: 0x8, addend: 0x0, symName: __ZNSt3__16vectorIiNS_9allocatorIiEEE16__destroy_vectorC2ERS3_, symObjAddr: 0x1C70, symBinAddr: 0x100004B3C, symSize: 0x20 }
  - { offsetInCU: 0x123B8, offset: 0x123B8, size: 0x8, addend: 0x0, symName: __ZNKSt3__16vectorIiNS_9allocatorIiEEE17__annotate_deleteB7v160006Ev, symObjAddr: 0x1C90, symBinAddr: 0x100004B5C, symSize: 0xB8 }
  - { offsetInCU: 0x123DD, offset: 0x123DD, size: 0x8, addend: 0x0, symName: __ZNSt3__16vectorIiNS_9allocatorIiEEE7__clearB7v160006Ev, symObjAddr: 0x1D58, symBinAddr: 0x100004C24, symSize: 0x28 }
  - { offsetInCU: 0x12402, offset: 0x12402, size: 0x8, addend: 0x0, symName: __ZNSt3__116allocator_traitsINS_9allocatorIiEEE10deallocateB7v160006ERS2_Pim, symObjAddr: 0x1D80, symBinAddr: 0x100004C4C, symSize: 0x34 }
  - { offsetInCU: 0x12444, offset: 0x12444, size: 0x8, addend: 0x0, symName: __ZNSt3__16vectorIiNS_9allocatorIiEEE7__allocB7v160006Ev, symObjAddr: 0x1DB4, symBinAddr: 0x100004C80, symSize: 0x28 }
  - { offsetInCU: 0x12469, offset: 0x12469, size: 0x8, addend: 0x0, symName: __ZNKSt3__16vectorIiNS_9allocatorIiEEE8capacityB7v160006Ev, symObjAddr: 0x1DDC, symBinAddr: 0x100004CA8, symSize: 0x40 }
  - { offsetInCU: 0x1248E, offset: 0x1248E, size: 0x8, addend: 0x0, symName: __ZNKSt3__16vectorIiNS_9allocatorIiEEE31__annotate_contiguous_containerB7v160006EPKvS5_S5_S5_, symObjAddr: 0x1E1C, symBinAddr: 0x100004CE8, symSize: 0x20 }
  - { offsetInCU: 0x124DF, offset: 0x124DF, size: 0x8, addend: 0x0, symName: __ZNKSt3__16vectorIiNS_9allocatorIiEEE4dataB7v160006Ev, symObjAddr: 0x1E3C, symBinAddr: 0x100004D08, symSize: 0x28 }
  - { offsetInCU: 0x12504, offset: 0x12504, size: 0x8, addend: 0x0, symName: __ZNKSt3__16vectorIiNS_9allocatorIiEEE4sizeB7v160006Ev, symObjAddr: 0x1E64, symBinAddr: 0x100004D30, symSize: 0x28 }
  - { offsetInCU: 0x12529, offset: 0x12529, size: 0x8, addend: 0x0, symName: __ZNSt3__16vectorIiNS_9allocatorIiEEE22__base_destruct_at_endB7v160006EPi, symObjAddr: 0x1EA0, symBinAddr: 0x100004D6C, symSize: 0x8C }
  - { offsetInCU: 0x1256C, offset: 0x1256C, size: 0x8, addend: 0x0, symName: __ZNSt3__116allocator_traitsINS_9allocatorIiEEE7destroyB7v160006IivEEvRS2_PT_, symObjAddr: 0x1F2C, symBinAddr: 0x100004DF8, symSize: 0x2C }
  - { offsetInCU: 0x125A9, offset: 0x125A9, size: 0x8, addend: 0x0, symName: __ZNSt3__19allocatorIiE7destroyB7v160006EPi, symObjAddr: 0x1F58, symBinAddr: 0x100004E24, symSize: 0x14 }
  - { offsetInCU: 0x125DC, offset: 0x125DC, size: 0x8, addend: 0x0, symName: __ZNSt3__19allocatorIiE10deallocateB7v160006EPim, symObjAddr: 0x1F6C, symBinAddr: 0x100004E38, symSize: 0x40 }
  - { offsetInCU: 0x1261D, offset: 0x1261D, size: 0x8, addend: 0x0, symName: __ZNSt3__117__compressed_pairIPiNS_9allocatorIiEEE6secondB7v160006Ev, symObjAddr: 0x1FAC, symBinAddr: 0x100004E78, symSize: 0x24 }
  - { offsetInCU: 0x12642, offset: 0x12642, size: 0x8, addend: 0x0, symName: __ZNSt3__122__compressed_pair_elemINS_9allocatorIiEELi1ELb1EE5__getB7v160006Ev, symObjAddr: 0x1FD0, symBinAddr: 0x100004E9C, symSize: 0x14 }
  - { offsetInCU: 0x12667, offset: 0x12667, size: 0x8, addend: 0x0, symName: __ZNKSt3__16vectorIiNS_9allocatorIiEEE9__end_capB7v160006Ev, symObjAddr: 0x1FE4, symBinAddr: 0x100004EB0, symSize: 0x28 }
  - { offsetInCU: 0x1268C, offset: 0x1268C, size: 0x8, addend: 0x0, symName: __ZNKSt3__117__compressed_pairIPiNS_9allocatorIiEEE5firstB7v160006Ev, symObjAddr: 0x200C, symBinAddr: 0x100004ED8, symSize: 0x24 }
  - { offsetInCU: 0x126B1, offset: 0x126B1, size: 0x8, addend: 0x0, symName: __ZNKSt3__122__compressed_pair_elemIPiLi0ELb0EE5__getB7v160006Ev, symObjAddr: 0x2030, symBinAddr: 0x100004EFC, symSize: 0x14 }
  - { offsetInCU: 0x126D6, offset: 0x126D6, size: 0x8, addend: 0x0, symName: __ZNSt3__19allocatorINS_6vectorIiNS0_IiEEEEE10deallocateB7v160006EPS3_m, symObjAddr: 0x2044, symBinAddr: 0x100004F10, symSize: 0x44 }
  - { offsetInCU: 0x12717, offset: 0x12717, size: 0x8, addend: 0x0, symName: __ZNSt3__117__compressed_pairIPNS_6vectorIiNS_9allocatorIiEEEENS2_IS4_EEE6secondB7v160006Ev, symObjAddr: 0x2088, symBinAddr: 0x100004F54, symSize: 0x24 }
  - { offsetInCU: 0x1273C, offset: 0x1273C, size: 0x8, addend: 0x0, symName: __ZNSt3__122__compressed_pair_elemINS_9allocatorINS_6vectorIiNS1_IiEEEEEELi1ELb1EE5__getB7v160006Ev, symObjAddr: 0x20AC, symBinAddr: 0x100004F78, symSize: 0x14 }
  - { offsetInCU: 0x12761, offset: 0x12761, size: 0x8, addend: 0x0, symName: __ZNKSt3__16vectorINS0_IiNS_9allocatorIiEEEENS1_IS3_EEE9__end_capB7v160006Ev, symObjAddr: 0x20C0, symBinAddr: 0x100004F8C, symSize: 0x28 }
  - { offsetInCU: 0x12786, offset: 0x12786, size: 0x8, addend: 0x0, symName: __ZNKSt3__117__compressed_pairIPNS_6vectorIiNS_9allocatorIiEEEENS2_IS4_EEE5firstB7v160006Ev, symObjAddr: 0x20E8, symBinAddr: 0x100004FB4, symSize: 0x24 }
  - { offsetInCU: 0x127AB, offset: 0x127AB, size: 0x8, addend: 0x0, symName: __ZNKSt3__122__compressed_pair_elemIPNS_6vectorIiNS_9allocatorIiEEEELi0ELb0EE5__getB7v160006Ev, symObjAddr: 0x210C, symBinAddr: 0x100004FD8, symSize: 0x14 }
  - { offsetInCU: 0x127CF, offset: 0x127CF, size: 0x8, addend: 0x0, symName: __ZNSt3__16vectorINS0_IiNS_9allocatorIiEEEENS1_IS3_EEE8__appendEm, symObjAddr: 0x2120, symBinAddr: 0x100004FEC, symSize: 0x108 }
  - { offsetInCU: 0x1282A, offset: 0x1282A, size: 0x8, addend: 0x0, symName: __ZNSt3__16vectorINS0_IiNS_9allocatorIiEEEENS1_IS3_EEE17__destruct_at_endB7v160006EPS3_, symObjAddr: 0x2228, symBinAddr: 0x1000050F4, symSize: 0x60 }
  - { offsetInCU: 0x1286D, offset: 0x1286D, size: 0x8, addend: 0x0, symName: __ZNSt3__16vectorINS0_IiNS_9allocatorIiEEEENS1_IS3_EEE9__end_capB7v160006Ev, symObjAddr: 0x2288, symBinAddr: 0x100005154, symSize: 0x28 }
  - { offsetInCU: 0x12891, offset: 0x12891, size: 0x8, addend: 0x0, symName: __ZNSt3__16vectorINS0_IiNS_9allocatorIiEEEENS1_IS3_EEE18__construct_at_endEm, symObjAddr: 0x22B0, symBinAddr: 0x10000517C, symSize: 0xC8 }
  - { offsetInCU: 0x12901, offset: 0x12901, size: 0x8, addend: 0x0, symName: __ZNKSt3__16vectorINS0_IiNS_9allocatorIiEEEENS1_IS3_EEE11__recommendB7v160006Em, symObjAddr: 0x2378, symBinAddr: 0x100005244, symSize: 0xB4 }
  - { offsetInCU: 0x12955, offset: 0x12955, size: 0x8, addend: 0x0, symName: __ZNSt3__114__split_bufferINS_6vectorIiNS_9allocatorIiEEEERNS2_IS4_EEEC1EmmS6_, symObjAddr: 0x242C, symBinAddr: 0x1000052F8, symSize: 0x44 }
  - { offsetInCU: 0x129AA, offset: 0x129AA, size: 0x8, addend: 0x0, symName: __ZNSt3__114__split_bufferINS_6vectorIiNS_9allocatorIiEEEERNS2_IS4_EEE18__construct_at_endEm, symObjAddr: 0x2470, symBinAddr: 0x10000533C, symSize: 0xB4 }
  - { offsetInCU: 0x129EC, offset: 0x129EC, size: 0x8, addend: 0x0, symName: __ZNSt3__114__split_bufferINS_6vectorIiNS_9allocatorIiEEEERNS2_IS4_EEED1Ev, symObjAddr: 0x263C, symBinAddr: 0x100005508, symSize: 0x2C }
  - { offsetInCU: 0x12A17, offset: 0x12A17, size: 0x8, addend: 0x0, symName: __ZNSt3__117__compressed_pairIPNS_6vectorIiNS_9allocatorIiEEEENS2_IS4_EEE5firstB7v160006Ev, symObjAddr: 0x2668, symBinAddr: 0x100005534, symSize: 0x24 }
  - { offsetInCU: 0x12A3C, offset: 0x12A3C, size: 0x8, addend: 0x0, symName: __ZNSt3__122__compressed_pair_elemIPNS_6vectorIiNS_9allocatorIiEEEELi0ELb0EE5__getB7v160006Ev, symObjAddr: 0x268C, symBinAddr: 0x100005558, symSize: 0x14 }
  - { offsetInCU: 0x12A7A, offset: 0x12A7A, size: 0x8, addend: 0x0, symName: __ZNSt3__16vectorINS0_IiNS_9allocatorIiEEEENS1_IS3_EEE21_ConstructTransactionC1B7v160006ERS5_m, symObjAddr: 0x26A0, symBinAddr: 0x10000556C, symSize: 0x3C }
  - { offsetInCU: 0x12AC1, offset: 0x12AC1, size: 0x8, addend: 0x0, symName: __ZNSt3__116allocator_traitsINS_9allocatorINS_6vectorIiNS1_IiEEEEEEE9constructB7v160006IS4_JEvEEvRS5_PT_DpOT0_, symObjAddr: 0x26DC, symBinAddr: 0x1000055A8, symSize: 0x2C }
  - { offsetInCU: 0x12B03, offset: 0x12B03, size: 0x8, addend: 0x0, symName: __ZNSt3__16vectorINS0_IiNS_9allocatorIiEEEENS1_IS3_EEE21_ConstructTransactionD1B7v160006Ev, symObjAddr: 0x2708, symBinAddr: 0x1000055D4, symSize: 0x2C }
  - { offsetInCU: 0x12B2C, offset: 0x12B2C, size: 0x8, addend: 0x0, symName: __ZNSt3__16vectorINS0_IiNS_9allocatorIiEEEENS1_IS3_EEE21_ConstructTransactionC2B7v160006ERS5_m, symObjAddr: 0x2734, symBinAddr: 0x100005600, symSize: 0x4C }
  - { offsetInCU: 0x12B73, offset: 0x12B73, size: 0x8, addend: 0x0, symName: __ZNSt3__19allocatorINS_6vectorIiNS0_IiEEEEE9constructB7v160006IS3_JEEEvPT_DpOT0_, symObjAddr: 0x2780, symBinAddr: 0x10000564C, symSize: 0x28 }
  - { offsetInCU: 0x12BB4, offset: 0x12BB4, size: 0x8, addend: 0x0, symName: __ZNSt3__16vectorIiNS_9allocatorIiEEEC1B7v160006Ev, symObjAddr: 0x27A8, symBinAddr: 0x100005674, symSize: 0x2C }
  - { offsetInCU: 0x12BDD, offset: 0x12BDD, size: 0x8, addend: 0x0, symName: __ZNSt3__16vectorIiNS_9allocatorIiEEEC2B7v160006Ev, symObjAddr: 0x27D4, symBinAddr: 0x1000056A0, symSize: 0x58 }
  - { offsetInCU: 0x12C06, offset: 0x12C06, size: 0x8, addend: 0x0, symName: __ZNSt3__117__compressed_pairIPiNS_9allocatorIiEEEC1B7v160006IDnNS_18__default_init_tagEEEOT_OT0_, symObjAddr: 0x282C, symBinAddr: 0x1000056F8, symSize: 0x3C }
  - { offsetInCU: 0x12C5D, offset: 0x12C5D, size: 0x8, addend: 0x0, symName: __ZNSt3__117__compressed_pairIPiNS_9allocatorIiEEEC2B7v160006IDnNS_18__default_init_tagEEEOT_OT0_, symObjAddr: 0x2878, symBinAddr: 0x100005744, symSize: 0x40 }
  - { offsetInCU: 0x12CB4, offset: 0x12CB4, size: 0x8, addend: 0x0, symName: __ZNSt3__122__compressed_pair_elemIPiLi0ELb0EEC2B7v160006IDnvEEOT_, symObjAddr: 0x28B8, symBinAddr: 0x100005784, symSize: 0x1C }
  - { offsetInCU: 0x12CF5, offset: 0x12CF5, size: 0x8, addend: 0x0, symName: __ZNSt3__122__compressed_pair_elemINS_9allocatorIiEELi1ELb1EEC2B7v160006ENS_18__default_init_tagE, symObjAddr: 0x28D4, symBinAddr: 0x1000057A0, symSize: 0x2C }
  - { offsetInCU: 0x12D29, offset: 0x12D29, size: 0x8, addend: 0x0, symName: __ZNSt3__19allocatorIiEC2B7v160006Ev, symObjAddr: 0x2900, symBinAddr: 0x1000057CC, symSize: 0x2C }
  - { offsetInCU: 0x12D52, offset: 0x12D52, size: 0x8, addend: 0x0, symName: __ZNSt3__116__non_trivial_ifILb1ENS_9allocatorIiEEEC2B7v160006Ev, symObjAddr: 0x292C, symBinAddr: 0x1000057F8, symSize: 0x14 }
  - { offsetInCU: 0x12D7B, offset: 0x12D7B, size: 0x8, addend: 0x0, symName: __ZNSt3__16vectorINS0_IiNS_9allocatorIiEEEENS1_IS3_EEE21_ConstructTransactionD2B7v160006Ev, symObjAddr: 0x2940, symBinAddr: 0x10000580C, symSize: 0x20 }
  - { offsetInCU: 0x12DA3, offset: 0x12DA3, size: 0x8, addend: 0x0, symName: __ZNKSt3__16vectorINS0_IiNS_9allocatorIiEEEENS1_IS3_EEE8max_sizeEv, symObjAddr: 0x2960, symBinAddr: 0x10000582C, symSize: 0x60 }
  - { offsetInCU: 0x12DCA, offset: 0x12DCA, size: 0x8, addend: 0x0, symName: __ZNKSt3__16vectorINS0_IiNS_9allocatorIiEEEENS1_IS3_EEE20__throw_length_errorB7v160006Ev, symObjAddr: 0x29C0, symBinAddr: 0x10000588C, symSize: 0x1C }
  - { offsetInCU: 0x12DF9, offset: 0x12DF9, size: 0x8, addend: 0x0, symName: __ZNSt3__116allocator_traitsINS_9allocatorINS_6vectorIiNS1_IiEEEEEEE8max_sizeB7v160006IS5_vEEmRKS5_, symObjAddr: 0x2A34, symBinAddr: 0x100005900, symSize: 0x24 }
  - { offsetInCU: 0x12E27, offset: 0x12E27, size: 0x8, addend: 0x0, symName: __ZNKSt3__16vectorINS0_IiNS_9allocatorIiEEEENS1_IS3_EEE7__allocB7v160006Ev, symObjAddr: 0x2A58, symBinAddr: 0x100005924, symSize: 0x28 }
  - { offsetInCU: 0x12E4C, offset: 0x12E4C, size: 0x8, addend: 0x0, symName: __ZNSt3__114numeric_limitsIlE3maxB7v160006Ev, symObjAddr: 0x2A80, symBinAddr: 0x10000594C, symSize: 0x14 }
  - { offsetInCU: 0x12E74, offset: 0x12E74, size: 0x8, addend: 0x0, symName: __ZNKSt3__16__lessImmEclB7v160006ERKmS3_, symObjAddr: 0x2AE8, symBinAddr: 0x1000059B4, symSize: 0x34 }
  - { offsetInCU: 0x12EB5, offset: 0x12EB5, size: 0x8, addend: 0x0, symName: __ZNKSt3__19allocatorINS_6vectorIiNS0_IiEEEEE8max_sizeB7v160006Ev, symObjAddr: 0x2B1C, symBinAddr: 0x1000059E8, symSize: 0x18 }
  - { offsetInCU: 0x12EDA, offset: 0x12EDA, size: 0x8, addend: 0x0, symName: __ZNKSt3__117__compressed_pairIPNS_6vectorIiNS_9allocatorIiEEEENS2_IS4_EEE6secondB7v160006Ev, symObjAddr: 0x2B34, symBinAddr: 0x100005A00, symSize: 0x24 }
  - { offsetInCU: 0x12EFF, offset: 0x12EFF, size: 0x8, addend: 0x0, symName: __ZNKSt3__122__compressed_pair_elemINS_9allocatorINS_6vectorIiNS1_IiEEEEEELi1ELb1EE5__getB7v160006Ev, symObjAddr: 0x2B58, symBinAddr: 0x100005A24, symSize: 0x14 }
  - { offsetInCU: 0x12F24, offset: 0x12F24, size: 0x8, addend: 0x0, symName: __ZNSt3__123__libcpp_numeric_limitsIlLb1EE3maxB7v160006Ev, symObjAddr: 0x2B6C, symBinAddr: 0x100005A38, symSize: 0x8 }
  - { offsetInCU: 0x12F38, offset: 0x12F38, size: 0x8, addend: 0x0, symName: __ZNSt12length_errorC1B7v160006EPKc, symObjAddr: 0x2BD8, symBinAddr: 0x100005AA4, symSize: 0x34 }
  - { offsetInCU: 0x12F6F, offset: 0x12F6F, size: 0x8, addend: 0x0, symName: __ZNSt12length_errorC2B7v160006EPKc, symObjAddr: 0x2C0C, symBinAddr: 0x100005AD8, symSize: 0x4C }
  - { offsetInCU: 0x12FA6, offset: 0x12FA6, size: 0x8, addend: 0x0, symName: __ZNSt3__114__split_bufferINS_6vectorIiNS_9allocatorIiEEEERNS2_IS4_EEEC2EmmS6_, symObjAddr: 0x2CAC, symBinAddr: 0x100005B78, symSize: 0xE0 }
  - { offsetInCU: 0x13018, offset: 0x13018, size: 0x8, addend: 0x0, symName: __ZNSt3__117__compressed_pairIPNS_6vectorIiNS_9allocatorIiEEEERNS2_IS4_EEEC1B7v160006IDnS7_EEOT_OT0_, symObjAddr: 0x2D8C, symBinAddr: 0x100005C58, symSize: 0x3C }
  - { offsetInCU: 0x1306F, offset: 0x1306F, size: 0x8, addend: 0x0, symName: __ZNSt3__114__split_bufferINS_6vectorIiNS_9allocatorIiEEEERNS2_IS4_EEE7__allocB7v160006Ev, symObjAddr: 0x2E08, symBinAddr: 0x100005CD4, symSize: 0x28 }
  - { offsetInCU: 0x13094, offset: 0x13094, size: 0x8, addend: 0x0, symName: __ZNSt3__114__split_bufferINS_6vectorIiNS_9allocatorIiEEEERNS2_IS4_EEE9__end_capB7v160006Ev, symObjAddr: 0x2E30, symBinAddr: 0x100005CFC, symSize: 0x28 }
  - { offsetInCU: 0x130B9, offset: 0x130B9, size: 0x8, addend: 0x0, symName: __ZNSt3__117__compressed_pairIPNS_6vectorIiNS_9allocatorIiEEEERNS2_IS4_EEEC2B7v160006IDnS7_EEOT_OT0_, symObjAddr: 0x2E58, symBinAddr: 0x100005D24, symSize: 0x48 }
  - { offsetInCU: 0x13110, offset: 0x13110, size: 0x8, addend: 0x0, symName: __ZNSt3__122__compressed_pair_elemIRNS_9allocatorINS_6vectorIiNS1_IiEEEEEELi1ELb0EEC2B7v160006IS6_vEEOT_, symObjAddr: 0x2EA0, symBinAddr: 0x100005D6C, symSize: 0x20 }
  - { offsetInCU: 0x13151, offset: 0x13151, size: 0x8, addend: 0x0, symName: __ZNSt3__19allocatorINS_6vectorIiNS0_IiEEEEE8allocateB7v160006Em, symObjAddr: 0x2EC0, symBinAddr: 0x100005D8C, symSize: 0x5C }
  - { offsetInCU: 0x13184, offset: 0x13184, size: 0x8, addend: 0x0, symName: __ZNSt3__117__compressed_pairIPNS_6vectorIiNS_9allocatorIiEEEERNS2_IS4_EEE6secondB7v160006Ev, symObjAddr: 0x2F9C, symBinAddr: 0x100005E68, symSize: 0x28 }
  - { offsetInCU: 0x131A9, offset: 0x131A9, size: 0x8, addend: 0x0, symName: __ZNSt3__122__compressed_pair_elemIRNS_9allocatorINS_6vectorIiNS1_IiEEEEEELi1ELb0EE5__getB7v160006Ev, symObjAddr: 0x2FC4, symBinAddr: 0x100005E90, symSize: 0x18 }
  - { offsetInCU: 0x131CE, offset: 0x131CE, size: 0x8, addend: 0x0, symName: __ZNSt3__117__compressed_pairIPNS_6vectorIiNS_9allocatorIiEEEERNS2_IS4_EEE5firstB7v160006Ev, symObjAddr: 0x2FDC, symBinAddr: 0x100005EA8, symSize: 0x24 }
  - { offsetInCU: 0x131FD, offset: 0x131FD, size: 0x8, addend: 0x0, symName: __ZNSt3__114__split_bufferINS_6vectorIiNS_9allocatorIiEEEERNS2_IS4_EEE21_ConstructTransactionC1B7v160006EPPS4_m, symObjAddr: 0x3000, symBinAddr: 0x100005ECC, symSize: 0x3C }
  - { offsetInCU: 0x13242, offset: 0x13242, size: 0x8, addend: 0x0, symName: __ZNSt3__114__split_bufferINS_6vectorIiNS_9allocatorIiEEEERNS2_IS4_EEE21_ConstructTransactionD1B7v160006Ev, symObjAddr: 0x303C, symBinAddr: 0x100005F08, symSize: 0x2C }
  - { offsetInCU: 0x1326B, offset: 0x1326B, size: 0x8, addend: 0x0, symName: __ZNSt3__114__split_bufferINS_6vectorIiNS_9allocatorIiEEEERNS2_IS4_EEE21_ConstructTransactionC2B7v160006EPPS4_m, symObjAddr: 0x3068, symBinAddr: 0x100005F34, symSize: 0x4C }
  - { offsetInCU: 0x132B0, offset: 0x132B0, size: 0x8, addend: 0x0, symName: __ZNSt3__114__split_bufferINS_6vectorIiNS_9allocatorIiEEEERNS2_IS4_EEE21_ConstructTransactionD2B7v160006Ev, symObjAddr: 0x30B4, symBinAddr: 0x100005F80, symSize: 0x20 }
  - { offsetInCU: 0x132D9, offset: 0x132D9, size: 0x8, addend: 0x0, symName: __ZNSt3__116reverse_iteratorIPNS_6vectorIiNS_9allocatorIiEEEEEC1B7v160006ES5_, symObjAddr: 0x3200, symBinAddr: 0x1000060CC, symSize: 0x34 }
  - { offsetInCU: 0x13310, offset: 0x13310, size: 0x8, addend: 0x0, symName: __ZNKSt3__116reverse_iteratorIPNS_6vectorIiNS_9allocatorIiEEEEE4baseB7v160006Ev, symObjAddr: 0x3234, symBinAddr: 0x100006100, symSize: 0x18 }
  - { offsetInCU: 0x13335, offset: 0x13335, size: 0x8, addend: 0x0, symName: __ZNKSt3__16vectorINS0_IiNS_9allocatorIiEEEENS1_IS3_EEE14__annotate_newB7v160006Em, symObjAddr: 0x3288, symBinAddr: 0x100006154, symSize: 0xC8 }
  - { offsetInCU: 0x13369, offset: 0x13369, size: 0x8, addend: 0x0, symName: __ZNSt3__129_AllocatorDestroyRangeReverseINS_9allocatorINS_6vectorIiNS1_IiEEEEEENS_16reverse_iteratorIPS4_EEEC1B7v160006ERS5_RS8_SB_, symObjAddr: 0x33AC, symBinAddr: 0x100006278, symSize: 0x44 }
  - { offsetInCU: 0x133BF, offset: 0x133BF, size: 0x8, addend: 0x0, symName: __ZNSt3__116allocator_traitsINS_9allocatorINS_6vectorIiNS1_IiEEEEEEE9constructB7v160006IS4_JS4_EvEEvRS5_PT_DpOT0_, symObjAddr: 0x3438, symBinAddr: 0x100006304, symSize: 0x34 }
  - { offsetInCU: 0x13416, offset: 0x13416, size: 0x8, addend: 0x0, symName: __ZNKSt3__116reverse_iteratorIPNS_6vectorIiNS_9allocatorIiEEEEEdeB7v160006Ev, symObjAddr: 0x3490, symBinAddr: 0x10000635C, symSize: 0x28 }
  - { offsetInCU: 0x13449, offset: 0x13449, size: 0x8, addend: 0x0, symName: __ZNSt3__116reverse_iteratorIPNS_6vectorIiNS_9allocatorIiEEEEEppB7v160006Ev, symObjAddr: 0x34B8, symBinAddr: 0x100006384, symSize: 0x20 }
  - { offsetInCU: 0x1346E, offset: 0x1346E, size: 0x8, addend: 0x0, symName: __ZNSt3__128__exception_guard_exceptionsINS_29_AllocatorDestroyRangeReverseINS_9allocatorINS_6vectorIiNS2_IiEEEEEENS_16reverse_iteratorIPS5_EEEEE10__completeB7v160006Ev, symObjAddr: 0x34D8, symBinAddr: 0x1000063A4, symSize: 0x1C }
  - { offsetInCU: 0x13493, offset: 0x13493, size: 0x8, addend: 0x0, symName: __ZNSt3__128__exception_guard_exceptionsINS_29_AllocatorDestroyRangeReverseINS_9allocatorINS_6vectorIiNS2_IiEEEEEENS_16reverse_iteratorIPS5_EEEEED1B7v160006Ev, symObjAddr: 0x34F4, symBinAddr: 0x1000063C0, symSize: 0x2C }
  - { offsetInCU: 0x134BC, offset: 0x134BC, size: 0x8, addend: 0x0, symName: __ZNSt3__128__exception_guard_exceptionsINS_29_AllocatorDestroyRangeReverseINS_9allocatorINS_6vectorIiNS2_IiEEEEEENS_16reverse_iteratorIPS5_EEEEEC1B7v160006ESA_, symObjAddr: 0x3520, symBinAddr: 0x1000063EC, symSize: 0x34 }
  - { offsetInCU: 0x134F4, offset: 0x134F4, size: 0x8, addend: 0x0, symName: __ZNSt3__128__exception_guard_exceptionsINS_29_AllocatorDestroyRangeReverseINS_9allocatorINS_6vectorIiNS2_IiEEEEEENS_16reverse_iteratorIPS5_EEEEEC2B7v160006ESA_, symObjAddr: 0x3554, symBinAddr: 0x100006420, symSize: 0x30 }
  - { offsetInCU: 0x1352C, offset: 0x1352C, size: 0x8, addend: 0x0, symName: __ZNSt3__129_AllocatorDestroyRangeReverseINS_9allocatorINS_6vectorIiNS1_IiEEEEEENS_16reverse_iteratorIPS4_EEEC2B7v160006ERS5_RS8_SB_, symObjAddr: 0x3584, symBinAddr: 0x100006450, symSize: 0x38 }
  - { offsetInCU: 0x13582, offset: 0x13582, size: 0x8, addend: 0x0, symName: __ZNSt3__19allocatorINS_6vectorIiNS0_IiEEEEE9constructB7v160006IS3_JS3_EEEvPT_DpOT0_, symObjAddr: 0x35BC, symBinAddr: 0x100006488, symSize: 0x30 }
  - { offsetInCU: 0x135D7, offset: 0x135D7, size: 0x8, addend: 0x0, symName: __ZNSt3__16vectorIiNS_9allocatorIiEEEC1B7v160006EOS3_, symObjAddr: 0x35EC, symBinAddr: 0x1000064B8, symSize: 0x34 }
  - { offsetInCU: 0x13611, offset: 0x13611, size: 0x8, addend: 0x0, symName: __ZNSt3__16vectorIiNS_9allocatorIiEEEC2B7v160006EOS3_, symObjAddr: 0x3620, symBinAddr: 0x1000064EC, symSize: 0xDC }
  - { offsetInCU: 0x13650, offset: 0x13650, size: 0x8, addend: 0x0, symName: __ZNSt3__117__compressed_pairIPiNS_9allocatorIiEEEC1B7v160006IDnS3_EEOT_OT0_, symObjAddr: 0x36FC, symBinAddr: 0x1000065C8, symSize: 0x3C }
  - { offsetInCU: 0x136A7, offset: 0x136A7, size: 0x8, addend: 0x0, symName: __ZNSt3__16vectorIiNS_9allocatorIiEEE9__end_capB7v160006Ev, symObjAddr: 0x374C, symBinAddr: 0x100006618, symSize: 0x28 }
  - { offsetInCU: 0x136CC, offset: 0x136CC, size: 0x8, addend: 0x0, symName: __ZNSt3__117__compressed_pairIPiNS_9allocatorIiEEEC2B7v160006IDnS3_EEOT_OT0_, symObjAddr: 0x3774, symBinAddr: 0x100006640, symSize: 0x44 }
  - { offsetInCU: 0x13723, offset: 0x13723, size: 0x8, addend: 0x0, symName: __ZNSt3__122__compressed_pair_elemINS_9allocatorIiEELi1ELb1EEC2B7v160006IS2_vEEOT_, symObjAddr: 0x37B8, symBinAddr: 0x100006684, symSize: 0x18 }
  - { offsetInCU: 0x13764, offset: 0x13764, size: 0x8, addend: 0x0, symName: __ZNSt3__117__compressed_pairIPiNS_9allocatorIiEEE5firstB7v160006Ev, symObjAddr: 0x37D0, symBinAddr: 0x10000669C, symSize: 0x24 }
  - { offsetInCU: 0x13789, offset: 0x13789, size: 0x8, addend: 0x0, symName: __ZNSt3__122__compressed_pair_elemIPiLi0ELb0EE5__getB7v160006Ev, symObjAddr: 0x37F4, symBinAddr: 0x1000066C0, symSize: 0x14 }
  - { offsetInCU: 0x137B3, offset: 0x137B3, size: 0x8, addend: 0x0, symName: __ZNSt3__119__to_address_helperINS_16reverse_iteratorIPNS_6vectorIiNS_9allocatorIiEEEEEEvE6__callB7v160006ERKS7_, symObjAddr: 0x3808, symBinAddr: 0x1000066D4, symSize: 0x38 }
  - { offsetInCU: 0x137D6, offset: 0x137D6, size: 0x8, addend: 0x0, symName: __ZNKSt3__116reverse_iteratorIPNS_6vectorIiNS_9allocatorIiEEEEEptB7v160006Ev, symObjAddr: 0x3840, symBinAddr: 0x10000670C, symSize: 0x24 }
  - { offsetInCU: 0x137FB, offset: 0x137FB, size: 0x8, addend: 0x0, symName: __ZNSt3__128__exception_guard_exceptionsINS_29_AllocatorDestroyRangeReverseINS_9allocatorINS_6vectorIiNS2_IiEEEEEENS_16reverse_iteratorIPS5_EEEEED2B7v160006Ev, symObjAddr: 0x3864, symBinAddr: 0x100006730, symSize: 0x50 }
  - { offsetInCU: 0x13824, offset: 0x13824, size: 0x8, addend: 0x0, symName: __ZNKSt3__129_AllocatorDestroyRangeReverseINS_9allocatorINS_6vectorIiNS1_IiEEEEEENS_16reverse_iteratorIPS4_EEEclB7v160006Ev, symObjAddr: 0x38B4, symBinAddr: 0x100006780, symSize: 0xB4 }
  - { offsetInCU: 0x1384A, offset: 0x1384A, size: 0x8, addend: 0x0, symName: __ZNSt3__116reverse_iteratorINS0_IPNS_6vectorIiNS_9allocatorIiEEEEEEEC1B7v160006ES6_, symObjAddr: 0x39D8, symBinAddr: 0x1000068A4, symSize: 0x3C }
  - { offsetInCU: 0x13881, offset: 0x13881, size: 0x8, addend: 0x0, symName: __ZNSt3__116reverse_iteratorINS0_IPNS_6vectorIiNS_9allocatorIiEEEEEEEppB7v160006Ev, symObjAddr: 0x3A98, symBinAddr: 0x100006964, symSize: 0x30 }
  - { offsetInCU: 0x138A6, offset: 0x138A6, size: 0x8, addend: 0x0, symName: __ZNKSt3__116reverse_iteratorINS0_IPNS_6vectorIiNS_9allocatorIiEEEEEEE4baseB7v160006Ev, symObjAddr: 0x3AC8, symBinAddr: 0x100006994, symSize: 0x24 }
  - { offsetInCU: 0x138D0, offset: 0x138D0, size: 0x8, addend: 0x0, symName: __ZNSt3__119__to_address_helperINS_16reverse_iteratorINS1_IPNS_6vectorIiNS_9allocatorIiEEEEEEEEvE6__callB7v160006ERKS8_, symObjAddr: 0x3AEC, symBinAddr: 0x1000069B8, symSize: 0x38 }
  - { offsetInCU: 0x138F3, offset: 0x138F3, size: 0x8, addend: 0x0, symName: __ZNKSt3__116reverse_iteratorINS0_IPNS_6vectorIiNS_9allocatorIiEEEEEEEptB7v160006Ev, symObjAddr: 0x3B24, symBinAddr: 0x1000069F0, symSize: 0x24 }
  - { offsetInCU: 0x13918, offset: 0x13918, size: 0x8, addend: 0x0, symName: __ZNKSt3__116reverse_iteratorINS0_IPNS_6vectorIiNS_9allocatorIiEEEEEEEdeB7v160006Ev, symObjAddr: 0x3B48, symBinAddr: 0x100006A14, symSize: 0x34 }
  - { offsetInCU: 0x1394B, offset: 0x1394B, size: 0x8, addend: 0x0, symName: __ZNSt3__116reverse_iteratorIPNS_6vectorIiNS_9allocatorIiEEEEEmmB7v160006Ev, symObjAddr: 0x3B7C, symBinAddr: 0x100006A48, symSize: 0x20 }
  - { offsetInCU: 0x13970, offset: 0x13970, size: 0x8, addend: 0x0, symName: __ZNSt3__116reverse_iteratorINS0_IPNS_6vectorIiNS_9allocatorIiEEEEEEEC2B7v160006ES6_, symObjAddr: 0x3B9C, symBinAddr: 0x100006A68, symSize: 0x2C }
  - { offsetInCU: 0x139A7, offset: 0x139A7, size: 0x8, addend: 0x0, symName: __ZNSt3__116reverse_iteratorIPNS_6vectorIiNS_9allocatorIiEEEEEC2B7v160006ES5_, symObjAddr: 0x3BC8, symBinAddr: 0x100006A94, symSize: 0x28 }
  - { offsetInCU: 0x139DE, offset: 0x139DE, size: 0x8, addend: 0x0, symName: __ZNSt3__114__split_bufferINS_6vectorIiNS_9allocatorIiEEEERNS2_IS4_EEED2Ev, symObjAddr: 0x3BF0, symBinAddr: 0x100006ABC, symSize: 0x8C }
  - { offsetInCU: 0x13A09, offset: 0x13A09, size: 0x8, addend: 0x0, symName: __ZNSt3__114__split_bufferINS_6vectorIiNS_9allocatorIiEEEERNS2_IS4_EEE5clearB7v160006Ev, symObjAddr: 0x3C7C, symBinAddr: 0x100006B48, symSize: 0x28 }
  - { offsetInCU: 0x13A2E, offset: 0x13A2E, size: 0x8, addend: 0x0, symName: __ZNKSt3__114__split_bufferINS_6vectorIiNS_9allocatorIiEEEERNS2_IS4_EEE8capacityB7v160006Ev, symObjAddr: 0x3CA4, symBinAddr: 0x100006B70, symSize: 0x40 }
  - { offsetInCU: 0x13A53, offset: 0x13A53, size: 0x8, addend: 0x0, symName: __ZNSt3__114__split_bufferINS_6vectorIiNS_9allocatorIiEEEERNS2_IS4_EEE17__destruct_at_endB7v160006EPS4_, symObjAddr: 0x3CE4, symBinAddr: 0x100006BB0, symSize: 0x2C }
  - { offsetInCU: 0x13A85, offset: 0x13A85, size: 0x8, addend: 0x0, symName: __ZNSt3__114__split_bufferINS_6vectorIiNS_9allocatorIiEEEERNS2_IS4_EEE17__destruct_at_endB7v160006EPS4_NS_17integral_constantIbLb0EEE, symObjAddr: 0x3D10, symBinAddr: 0x100006BDC, symSize: 0x80 }
  - { offsetInCU: 0x13AC5, offset: 0x13AC5, size: 0x8, addend: 0x0, symName: __ZNKSt3__114__split_bufferINS_6vectorIiNS_9allocatorIiEEEERNS2_IS4_EEE9__end_capB7v160006Ev, symObjAddr: 0x3D90, symBinAddr: 0x100006C5C, symSize: 0x28 }
  - { offsetInCU: 0x13AEA, offset: 0x13AEA, size: 0x8, addend: 0x0, symName: __ZNKSt3__117__compressed_pairIPNS_6vectorIiNS_9allocatorIiEEEERNS2_IS4_EEE5firstB7v160006Ev, symObjAddr: 0x3DB8, symBinAddr: 0x100006C84, symSize: 0x24 }
  - { offsetInCU: 0x13B0F, offset: 0x13B0F, size: 0x8, addend: 0x0, symName: __ZNSt3__16vectorINS0_IiNS_9allocatorIiEEEENS1_IS3_EEE27__invalidate_iterators_pastB7v160006EPS3_, symObjAddr: 0x3DDC, symBinAddr: 0x100006CA8, symSize: 0x14 }
  - { offsetInCU: 0x13B45, offset: 0x13B45, size: 0x8, addend: 0x0, symName: __ZNKSt3__16vectorINS0_IiNS_9allocatorIiEEEENS1_IS3_EEE17__annotate_shrinkB7v160006Em, symObjAddr: 0x3DF0, symBinAddr: 0x100006CBC, symSize: 0xD0 }
  - { offsetInCU: 0x13B78, offset: 0x13B78, size: 0x8, addend: 0x0, symName: __ZNSt3__16vectorIiNS_9allocatorIiEEE8__appendEm, symObjAddr: 0x3EC0, symBinAddr: 0x100006D8C, symSize: 0x108 }
  - { offsetInCU: 0x13BD3, offset: 0x13BD3, size: 0x8, addend: 0x0, symName: __ZNSt3__16vectorIiNS_9allocatorIiEEE17__destruct_at_endB7v160006EPi, symObjAddr: 0x3FC8, symBinAddr: 0x100006E94, symSize: 0x60 }
  - { offsetInCU: 0x13C15, offset: 0x13C15, size: 0x8, addend: 0x0, symName: __ZNSt3__16vectorIiNS_9allocatorIiEEE18__construct_at_endEm, symObjAddr: 0x4028, symBinAddr: 0x100006EF4, symSize: 0xC8 }
  - { offsetInCU: 0x13C85, offset: 0x13C85, size: 0x8, addend: 0x0, symName: __ZNKSt3__16vectorIiNS_9allocatorIiEEE11__recommendB7v160006Em, symObjAddr: 0x40F0, symBinAddr: 0x100006FBC, symSize: 0xB4 }
  - { offsetInCU: 0x13CD9, offset: 0x13CD9, size: 0x8, addend: 0x0, symName: __ZNSt3__114__split_bufferIiRNS_9allocatorIiEEEC1EmmS3_, symObjAddr: 0x41A4, symBinAddr: 0x100007070, symSize: 0x44 }
  - { offsetInCU: 0x13D2E, offset: 0x13D2E, size: 0x8, addend: 0x0, symName: __ZNSt3__114__split_bufferIiRNS_9allocatorIiEEE18__construct_at_endEm, symObjAddr: 0x41E8, symBinAddr: 0x1000070B4, symSize: 0xB4 }
  - { offsetInCU: 0x13D70, offset: 0x13D70, size: 0x8, addend: 0x0, symName: __ZNSt3__114__split_bufferIiRNS_9allocatorIiEEED1Ev, symObjAddr: 0x43B4, symBinAddr: 0x100007280, symSize: 0x2C }
  - { offsetInCU: 0x13DB4, offset: 0x13DB4, size: 0x8, addend: 0x0, symName: __ZNSt3__16vectorIiNS_9allocatorIiEEE21_ConstructTransactionC1B7v160006ERS3_m, symObjAddr: 0x43E0, symBinAddr: 0x1000072AC, symSize: 0x3C }
  - { offsetInCU: 0x13DFB, offset: 0x13DFB, size: 0x8, addend: 0x0, symName: __ZNSt3__116allocator_traitsINS_9allocatorIiEEE9constructB7v160006IiJEvEEvRS2_PT_DpOT0_, symObjAddr: 0x441C, symBinAddr: 0x1000072E8, symSize: 0x2C }
  - { offsetInCU: 0x13E3D, offset: 0x13E3D, size: 0x8, addend: 0x0, symName: __ZNSt3__16vectorIiNS_9allocatorIiEEE21_ConstructTransactionD1B7v160006Ev, symObjAddr: 0x4448, symBinAddr: 0x100007314, symSize: 0x2C }
  - { offsetInCU: 0x13E66, offset: 0x13E66, size: 0x8, addend: 0x0, symName: __ZNSt3__16vectorIiNS_9allocatorIiEEE21_ConstructTransactionC2B7v160006ERS3_m, symObjAddr: 0x4474, symBinAddr: 0x100007340, symSize: 0x44 }
  - { offsetInCU: 0x13EAD, offset: 0x13EAD, size: 0x8, addend: 0x0, symName: __ZNSt3__19allocatorIiE9constructB7v160006IiJEEEvPT_DpOT0_, symObjAddr: 0x44B8, symBinAddr: 0x100007384, symSize: 0x1C }
  - { offsetInCU: 0x13EEE, offset: 0x13EEE, size: 0x8, addend: 0x0, symName: __ZNSt3__16vectorIiNS_9allocatorIiEEE21_ConstructTransactionD2B7v160006Ev, symObjAddr: 0x44D4, symBinAddr: 0x1000073A0, symSize: 0x20 }
  - { offsetInCU: 0x13F16, offset: 0x13F16, size: 0x8, addend: 0x0, symName: __ZNKSt3__16vectorIiNS_9allocatorIiEEE8max_sizeEv, symObjAddr: 0x44F4, symBinAddr: 0x1000073C0, symSize: 0x60 }
  - { offsetInCU: 0x13F3D, offset: 0x13F3D, size: 0x8, addend: 0x0, symName: __ZNKSt3__16vectorIiNS_9allocatorIiEEE20__throw_length_errorB7v160006Ev, symObjAddr: 0x4554, symBinAddr: 0x100007420, symSize: 0x1C }
  - { offsetInCU: 0x13F6C, offset: 0x13F6C, size: 0x8, addend: 0x0, symName: __ZNSt3__116allocator_traitsINS_9allocatorIiEEE8max_sizeB7v160006IS2_vEEmRKS2_, symObjAddr: 0x4570, symBinAddr: 0x10000743C, symSize: 0x24 }
  - { offsetInCU: 0x13F9A, offset: 0x13F9A, size: 0x8, addend: 0x0, symName: __ZNKSt3__16vectorIiNS_9allocatorIiEEE7__allocB7v160006Ev, symObjAddr: 0x4594, symBinAddr: 0x100007460, symSize: 0x28 }
  - { offsetInCU: 0x13FBF, offset: 0x13FBF, size: 0x8, addend: 0x0, symName: __ZNKSt3__19allocatorIiE8max_sizeB7v160006Ev, symObjAddr: 0x45BC, symBinAddr: 0x100007488, symSize: 0x14 }
  - { offsetInCU: 0x13FE4, offset: 0x13FE4, size: 0x8, addend: 0x0, symName: __ZNKSt3__117__compressed_pairIPiNS_9allocatorIiEEE6secondB7v160006Ev, symObjAddr: 0x45D0, symBinAddr: 0x10000749C, symSize: 0x24 }
  - { offsetInCU: 0x14009, offset: 0x14009, size: 0x8, addend: 0x0, symName: __ZNKSt3__122__compressed_pair_elemINS_9allocatorIiEELi1ELb1EE5__getB7v160006Ev, symObjAddr: 0x45F4, symBinAddr: 0x1000074C0, symSize: 0x14 }
  - { offsetInCU: 0x1402E, offset: 0x1402E, size: 0x8, addend: 0x0, symName: __ZNSt3__114__split_bufferIiRNS_9allocatorIiEEEC2EmmS3_, symObjAddr: 0x4608, symBinAddr: 0x1000074D4, symSize: 0xD4 }
  - { offsetInCU: 0x140A0, offset: 0x140A0, size: 0x8, addend: 0x0, symName: __ZNSt3__117__compressed_pairIPiRNS_9allocatorIiEEEC1B7v160006IDnS4_EEOT_OT0_, symObjAddr: 0x46DC, symBinAddr: 0x1000075A8, symSize: 0x3C }
  - { offsetInCU: 0x140F7, offset: 0x140F7, size: 0x8, addend: 0x0, symName: __ZNSt3__114__split_bufferIiRNS_9allocatorIiEEE7__allocB7v160006Ev, symObjAddr: 0x4758, symBinAddr: 0x100007624, symSize: 0x28 }
  - { offsetInCU: 0x1411C, offset: 0x1411C, size: 0x8, addend: 0x0, symName: __ZNSt3__114__split_bufferIiRNS_9allocatorIiEEE9__end_capB7v160006Ev, symObjAddr: 0x4780, symBinAddr: 0x10000764C, symSize: 0x28 }
  - { offsetInCU: 0x14141, offset: 0x14141, size: 0x8, addend: 0x0, symName: __ZNSt3__117__compressed_pairIPiRNS_9allocatorIiEEEC2B7v160006IDnS4_EEOT_OT0_, symObjAddr: 0x47A8, symBinAddr: 0x100007674, symSize: 0x48 }
  - { offsetInCU: 0x14198, offset: 0x14198, size: 0x8, addend: 0x0, symName: __ZNSt3__122__compressed_pair_elemIRNS_9allocatorIiEELi1ELb0EEC2B7v160006IS3_vEEOT_, symObjAddr: 0x47F0, symBinAddr: 0x1000076BC, symSize: 0x20 }
  - { offsetInCU: 0x141D9, offset: 0x141D9, size: 0x8, addend: 0x0, symName: __ZNSt3__19allocatorIiE8allocateB7v160006Em, symObjAddr: 0x4810, symBinAddr: 0x1000076DC, symSize: 0x58 }
  - { offsetInCU: 0x1420C, offset: 0x1420C, size: 0x8, addend: 0x0, symName: __ZNSt3__117__compressed_pairIPiRNS_9allocatorIiEEE6secondB7v160006Ev, symObjAddr: 0x4868, symBinAddr: 0x100007734, symSize: 0x28 }
  - { offsetInCU: 0x14231, offset: 0x14231, size: 0x8, addend: 0x0, symName: __ZNSt3__122__compressed_pair_elemIRNS_9allocatorIiEELi1ELb0EE5__getB7v160006Ev, symObjAddr: 0x4890, symBinAddr: 0x10000775C, symSize: 0x18 }
  - { offsetInCU: 0x14256, offset: 0x14256, size: 0x8, addend: 0x0, symName: __ZNSt3__117__compressed_pairIPiRNS_9allocatorIiEEE5firstB7v160006Ev, symObjAddr: 0x48A8, symBinAddr: 0x100007774, symSize: 0x24 }
  - { offsetInCU: 0x14285, offset: 0x14285, size: 0x8, addend: 0x0, symName: __ZNSt3__114__split_bufferIiRNS_9allocatorIiEEE21_ConstructTransactionC1B7v160006EPPim, symObjAddr: 0x48CC, symBinAddr: 0x100007798, symSize: 0x3C }
  - { offsetInCU: 0x142CA, offset: 0x142CA, size: 0x8, addend: 0x0, symName: __ZNSt3__114__split_bufferIiRNS_9allocatorIiEEE21_ConstructTransactionD1B7v160006Ev, symObjAddr: 0x4908, symBinAddr: 0x1000077D4, symSize: 0x2C }
  - { offsetInCU: 0x142F3, offset: 0x142F3, size: 0x8, addend: 0x0, symName: __ZNSt3__114__split_bufferIiRNS_9allocatorIiEEE21_ConstructTransactionC2B7v160006EPPim, symObjAddr: 0x4934, symBinAddr: 0x100007800, symSize: 0x44 }
  - { offsetInCU: 0x14338, offset: 0x14338, size: 0x8, addend: 0x0, symName: __ZNSt3__114__split_bufferIiRNS_9allocatorIiEEE21_ConstructTransactionD2B7v160006Ev, symObjAddr: 0x4978, symBinAddr: 0x100007844, symSize: 0x20 }
  - { offsetInCU: 0x14361, offset: 0x14361, size: 0x8, addend: 0x0, symName: __ZNSt3__116reverse_iteratorIPiEC1B7v160006ES1_, symObjAddr: 0x4A10, symBinAddr: 0x1000078DC, symSize: 0x34 }
  - { offsetInCU: 0x14398, offset: 0x14398, size: 0x8, addend: 0x0, symName: __ZNKSt3__116reverse_iteratorIPiE4baseB7v160006Ev, symObjAddr: 0x4A44, symBinAddr: 0x100007910, symSize: 0x18 }
  - { offsetInCU: 0x143BD, offset: 0x143BD, size: 0x8, addend: 0x0, symName: __ZNKSt3__16vectorIiNS_9allocatorIiEEE14__annotate_newB7v160006Em, symObjAddr: 0x4A98, symBinAddr: 0x100007964, symSize: 0xAC }
  - { offsetInCU: 0x14414, offset: 0x14414, size: 0x8, addend: 0x0, symName: __ZNKSt3__111__move_loopINS_17_ClassicAlgPolicyEEclB7v160006INS_16reverse_iteratorIPiEES6_S6_EENS_4pairIT_T1_EES8_T0_S9_, symObjAddr: 0x4E44, symBinAddr: 0x100007D10, symSize: 0xA0 }
  - { offsetInCU: 0x1447E, offset: 0x1447E, size: 0x8, addend: 0x0, symName: __ZNSt3__18_IterOpsINS_17_ClassicAlgPolicyEE11__iter_moveB7v160006IRNS_16reverse_iteratorIPiEEEENS_9enable_ifIXsr12is_referenceIDTdeclsr3stdE7declvalIRT_EEEEE5valueEDTclsr3stdE4movedeclsr3stdE7declvalISA_EEEEE4typeEOS9_, symObjAddr: 0x5078, symBinAddr: 0x100007F44, symSize: 0x28 }
  - { offsetInCU: 0x144AA, offset: 0x144AA, size: 0x8, addend: 0x0, symName: __ZNKSt3__116reverse_iteratorIPiEdeB7v160006Ev, symObjAddr: 0x50A0, symBinAddr: 0x100007F6C, symSize: 0x28 }
  - { offsetInCU: 0x144DD, offset: 0x144DD, size: 0x8, addend: 0x0, symName: __ZNSt3__116reverse_iteratorIPiEppB7v160006Ev, symObjAddr: 0x50C8, symBinAddr: 0x100007F94, symSize: 0x20 }
  - { offsetInCU: 0x14502, offset: 0x14502, size: 0x8, addend: 0x0, symName: __ZNSt3__18_IterOpsINS_17_ClassicAlgPolicyEE25__validate_iter_referenceB7v160006IRNS_16reverse_iteratorIPiEEEEvv, symObjAddr: 0x50E8, symBinAddr: 0x100007FB4, symSize: 0x4 }
  - { offsetInCU: 0x14520, offset: 0x14520, size: 0x8, addend: 0x0, symName: __ZNSt3__118__unwrap_iter_implINS_16reverse_iteratorIPiEELb0EE8__unwrapB7v160006ES3_, symObjAddr: 0x50EC, symBinAddr: 0x100007FB8, symSize: 0x24 }
  - { offsetInCU: 0x14548, offset: 0x14548, size: 0x8, addend: 0x0, symName: __ZNSt3__14pairINS_16reverse_iteratorIPiEES3_EC1B7v160006IS3_S3_LPv0EEEOT_OT0_, symObjAddr: 0x5110, symBinAddr: 0x100007FDC, symSize: 0x3C }
  - { offsetInCU: 0x145A5, offset: 0x145A5, size: 0x8, addend: 0x0, symName: __ZNSt3__14pairINS_16reverse_iteratorIPiEES3_EC2B7v160006IS3_S3_LPv0EEEOT_OT0_, symObjAddr: 0x514C, symBinAddr: 0x100008018, symSize: 0x34 }
  - { offsetInCU: 0x14602, offset: 0x14602, size: 0x8, addend: 0x0, symName: __ZNSt3__118__unwrap_iter_implINS_16reverse_iteratorIPiEELb0EE8__rewrapB7v160006ES3_S3_, symObjAddr: 0x5180, symBinAddr: 0x10000804C, symSize: 0x2C }
  - { offsetInCU: 0x14630, offset: 0x14630, size: 0x8, addend: 0x0, symName: __ZNSt3__116reverse_iteratorIPiEC2B7v160006ES1_, symObjAddr: 0x51AC, symBinAddr: 0x100008078, symSize: 0x28 }
  - { offsetInCU: 0x14667, offset: 0x14667, size: 0x8, addend: 0x0, symName: __ZNSt3__114__split_bufferIiRNS_9allocatorIiEEED2Ev, symObjAddr: 0x51D4, symBinAddr: 0x1000080A0, symSize: 0x8C }
  - { offsetInCU: 0x14692, offset: 0x14692, size: 0x8, addend: 0x0, symName: __ZNSt3__114__split_bufferIiRNS_9allocatorIiEEE5clearB7v160006Ev, symObjAddr: 0x5260, symBinAddr: 0x10000812C, symSize: 0x28 }
  - { offsetInCU: 0x146B7, offset: 0x146B7, size: 0x8, addend: 0x0, symName: __ZNKSt3__114__split_bufferIiRNS_9allocatorIiEEE8capacityB7v160006Ev, symObjAddr: 0x5288, symBinAddr: 0x100008154, symSize: 0x40 }
  - { offsetInCU: 0x146DC, offset: 0x146DC, size: 0x8, addend: 0x0, symName: __ZNSt3__114__split_bufferIiRNS_9allocatorIiEEE17__destruct_at_endB7v160006EPi, symObjAddr: 0x52C8, symBinAddr: 0x100008194, symSize: 0x2C }
  - { offsetInCU: 0x1470E, offset: 0x1470E, size: 0x8, addend: 0x0, symName: __ZNSt3__114__split_bufferIiRNS_9allocatorIiEEE17__destruct_at_endB7v160006EPiNS_17integral_constantIbLb0EEE, symObjAddr: 0x52F4, symBinAddr: 0x1000081C0, symSize: 0x80 }
  - { offsetInCU: 0x1474E, offset: 0x1474E, size: 0x8, addend: 0x0, symName: __ZNKSt3__114__split_bufferIiRNS_9allocatorIiEEE9__end_capB7v160006Ev, symObjAddr: 0x5374, symBinAddr: 0x100008240, symSize: 0x28 }
  - { offsetInCU: 0x14773, offset: 0x14773, size: 0x8, addend: 0x0, symName: __ZNKSt3__117__compressed_pairIPiRNS_9allocatorIiEEE5firstB7v160006Ev, symObjAddr: 0x539C, symBinAddr: 0x100008268, symSize: 0x24 }
  - { offsetInCU: 0x14798, offset: 0x14798, size: 0x8, addend: 0x0, symName: __ZNSt3__16vectorIiNS_9allocatorIiEEE27__invalidate_iterators_pastB7v160006EPi, symObjAddr: 0x53C0, symBinAddr: 0x10000828C, symSize: 0x14 }
  - { offsetInCU: 0x147CE, offset: 0x147CE, size: 0x8, addend: 0x0, symName: __ZNKSt3__16vectorIiNS_9allocatorIiEEE17__annotate_shrinkB7v160006Em, symObjAddr: 0x53D4, symBinAddr: 0x1000082A0, symSize: 0xB4 }
  - { offsetInCU: 0x14802, offset: 0x14802, size: 0x8, addend: 0x0, symName: __ZNSt3__16vectorIiNS_9allocatorIiEEE11__make_iterB7v160006EPi, symObjAddr: 0x5488, symBinAddr: 0x100008354, symSize: 0x34 }
  - { offsetInCU: 0x14836, offset: 0x14836, size: 0x8, addend: 0x0, symName: __ZNSt3__111__wrap_iterIPiEC1B7v160006EPKvS1_, symObjAddr: 0x54BC, symBinAddr: 0x100008388, symSize: 0x3C }
  - { offsetInCU: 0x1487B, offset: 0x1487B, size: 0x8, addend: 0x0, symName: __ZNSt3__111__wrap_iterIPiEC2B7v160006EPKvS1_, symObjAddr: 0x54F8, symBinAddr: 0x1000083C4, symSize: 0x24 }
  - { offsetInCU: 0x148C0, offset: 0x148C0, size: 0x8, addend: 0x0, symName: __ZNSt3__114priority_queueINS_5tupleIJiiiiEEENS_6vectorIS2_NS_9allocatorIS2_EEEENS_7greaterIvEEEC2B7v160006Ev, symObjAddr: 0x551C, symBinAddr: 0x1000083E8, symSize: 0x2C }
  - { offsetInCU: 0x148E9, offset: 0x148E9, size: 0x8, addend: 0x0, symName: __ZNSt3__16vectorINS_5tupleIJiiiiEEENS_9allocatorIS2_EEEC1B7v160006Ev, symObjAddr: 0x5548, symBinAddr: 0x100008414, symSize: 0x2C }
  - { offsetInCU: 0x14912, offset: 0x14912, size: 0x8, addend: 0x0, symName: __ZNSt3__16vectorINS_5tupleIJiiiiEEENS_9allocatorIS2_EEEC2B7v160006Ev, symObjAddr: 0x5574, symBinAddr: 0x100008440, symSize: 0x58 }
  - { offsetInCU: 0x1493B, offset: 0x1493B, size: 0x8, addend: 0x0, symName: __ZNSt3__117__compressed_pairIPNS_5tupleIJiiiiEEENS_9allocatorIS2_EEEC1B7v160006IDnNS_18__default_init_tagEEEOT_OT0_, symObjAddr: 0x55CC, symBinAddr: 0x100008498, symSize: 0x3C }
  - { offsetInCU: 0x14992, offset: 0x14992, size: 0x8, addend: 0x0, symName: __ZNSt3__117__compressed_pairIPNS_5tupleIJiiiiEEENS_9allocatorIS2_EEEC2B7v160006IDnNS_18__default_init_tagEEEOT_OT0_, symObjAddr: 0x5618, symBinAddr: 0x1000084E4, symSize: 0x40 }
  - { offsetInCU: 0x149E9, offset: 0x149E9, size: 0x8, addend: 0x0, symName: __ZNSt3__122__compressed_pair_elemIPNS_5tupleIJiiiiEEELi0ELb0EEC2B7v160006IDnvEEOT_, symObjAddr: 0x5658, symBinAddr: 0x100008524, symSize: 0x1C }
  - { offsetInCU: 0x14A2A, offset: 0x14A2A, size: 0x8, addend: 0x0, symName: __ZNSt3__122__compressed_pair_elemINS_9allocatorINS_5tupleIJiiiiEEEEELi1ELb1EEC2B7v160006ENS_18__default_init_tagE, symObjAddr: 0x5674, symBinAddr: 0x100008540, symSize: 0x2C }
  - { offsetInCU: 0x14A5E, offset: 0x14A5E, size: 0x8, addend: 0x0, symName: __ZNSt3__19allocatorINS_5tupleIJiiiiEEEEC2B7v160006Ev, symObjAddr: 0x56A0, symBinAddr: 0x10000856C, symSize: 0x2C }
  - { offsetInCU: 0x14A87, offset: 0x14A87, size: 0x8, addend: 0x0, symName: __ZNSt3__116__non_trivial_ifILb1ENS_9allocatorINS_5tupleIJiiiiEEEEEEC2B7v160006Ev, symObjAddr: 0x56CC, symBinAddr: 0x100008598, symSize: 0x14 }
  - { offsetInCU: 0x14AB0, offset: 0x14AB0, size: 0x8, addend: 0x0, symName: __ZNSt3__16vectorINS0_IiNS_9allocatorIiEEEENS1_IS3_EEE11__make_iterB7v160006EPS3_, symObjAddr: 0x56E0, symBinAddr: 0x1000085AC, symSize: 0x34 }
  - { offsetInCU: 0x14AE4, offset: 0x14AE4, size: 0x8, addend: 0x0, symName: __ZNSt3__111__wrap_iterIPNS_6vectorIiNS_9allocatorIiEEEEEC1B7v160006EPKvS5_, symObjAddr: 0x5714, symBinAddr: 0x1000085E0, symSize: 0x3C }
  - { offsetInCU: 0x14B29, offset: 0x14B29, size: 0x8, addend: 0x0, symName: __ZNSt3__111__wrap_iterIPNS_6vectorIiNS_9allocatorIiEEEEEC2B7v160006EPKvS5_, symObjAddr: 0x5750, symBinAddr: 0x10000861C, symSize: 0x24 }
  - { offsetInCU: 0x14B6D, offset: 0x14B6D, size: 0x8, addend: 0x0, symName: __ZNSt3__16vectorINS_5tupleIJiiiiEEENS_9allocatorIS2_EEE12emplace_backIJiiiiEEEvDpOT_, symObjAddr: 0x5774, symBinAddr: 0x100008640, symSize: 0x90 }
  - { offsetInCU: 0x14BE9, offset: 0x14BE9, size: 0x8, addend: 0x0, symName: __ZNSt3__16vectorINS_5tupleIJiiiiEEENS_9allocatorIS2_EEE5beginB7v160006Ev, symObjAddr: 0x5844, symBinAddr: 0x100008710, symSize: 0x30 }
  - { offsetInCU: 0x14C0F, offset: 0x14C0F, size: 0x8, addend: 0x0, symName: __ZNSt3__16vectorINS_5tupleIJiiiiEEENS_9allocatorIS2_EEE3endB7v160006Ev, symObjAddr: 0x5874, symBinAddr: 0x100008740, symSize: 0x30 }
  - { offsetInCU: 0x14C36, offset: 0x14C36, size: 0x8, addend: 0x0, symName: __ZNSt3__16vectorINS_5tupleIJiiiiEEENS_9allocatorIS2_EEE9__end_capB7v160006Ev, symObjAddr: 0x58A4, symBinAddr: 0x100008770, symSize: 0x28 }
  - { offsetInCU: 0x14C5B, offset: 0x14C5B, size: 0x8, addend: 0x0, symName: __ZNSt3__16vectorINS_5tupleIJiiiiEEENS_9allocatorIS2_EEE22__construct_one_at_endB7v160006IJiiiiEEEvDpOT_, symObjAddr: 0x58CC, symBinAddr: 0x100008798, symSize: 0xA8 }
  - { offsetInCU: 0x14CE4, offset: 0x14CE4, size: 0x8, addend: 0x0, symName: __ZNSt3__16vectorINS_5tupleIJiiiiEEENS_9allocatorIS2_EEE24__emplace_back_slow_pathIJiiiiEEEvDpOT_, symObjAddr: 0x5974, symBinAddr: 0x100008840, symSize: 0xF0 }
  - { offsetInCU: 0x14D7F, offset: 0x14D7F, size: 0x8, addend: 0x0, symName: __ZNSt3__117__compressed_pairIPNS_5tupleIJiiiiEEENS_9allocatorIS2_EEE5firstB7v160006Ev, symObjAddr: 0x5A64, symBinAddr: 0x100008930, symSize: 0x24 }
  - { offsetInCU: 0x14DA4, offset: 0x14DA4, size: 0x8, addend: 0x0, symName: __ZNSt3__122__compressed_pair_elemIPNS_5tupleIJiiiiEEELi0ELb0EE5__getB7v160006Ev, symObjAddr: 0x5A88, symBinAddr: 0x100008954, symSize: 0x14 }
  - { offsetInCU: 0x14DE2, offset: 0x14DE2, size: 0x8, addend: 0x0, symName: __ZNSt3__16vectorINS_5tupleIJiiiiEEENS_9allocatorIS2_EEE21_ConstructTransactionC1B7v160006ERS5_m, symObjAddr: 0x5A9C, symBinAddr: 0x100008968, symSize: 0x3C }
  - { offsetInCU: 0x14E29, offset: 0x14E29, size: 0x8, addend: 0x0, symName: __ZNSt3__116allocator_traitsINS_9allocatorINS_5tupleIJiiiiEEEEEE9constructB7v160006IS3_JiiiiEvEEvRS4_PT_DpOT0_, symObjAddr: 0x5AD8, symBinAddr: 0x1000089A4, symSize: 0x4C }
  - { offsetInCU: 0x14EBC, offset: 0x14EBC, size: 0x8, addend: 0x0, symName: __ZNSt3__16vectorINS_5tupleIJiiiiEEENS_9allocatorIS2_EEE21_ConstructTransactionD1B7v160006Ev, symObjAddr: 0x5B24, symBinAddr: 0x1000089F0, symSize: 0x2C }
  - { offsetInCU: 0x14EE5, offset: 0x14EE5, size: 0x8, addend: 0x0, symName: __ZNSt3__16vectorINS_5tupleIJiiiiEEENS_9allocatorIS2_EEE21_ConstructTransactionC2B7v160006ERS5_m, symObjAddr: 0x5B50, symBinAddr: 0x100008A1C, symSize: 0x44 }
  - { offsetInCU: 0x14F2C, offset: 0x14F2C, size: 0x8, addend: 0x0, symName: __ZNSt3__19allocatorINS_5tupleIJiiiiEEEE9constructB7v160006IS2_JiiiiEEEvPT_DpOT0_, symObjAddr: 0x5B94, symBinAddr: 0x100008A60, symSize: 0x48 }
  - { offsetInCU: 0x14FBA, offset: 0x14FBA, size: 0x8, addend: 0x0, symName: __ZNSt3__15tupleIJiiiiEEC1B7v160006IJiiiiELi0EEEDpOT_, symObjAddr: 0x5BDC, symBinAddr: 0x100008AA8, symSize: 0x4C }
  - { offsetInCU: 0x1503F, offset: 0x1503F, size: 0x8, addend: 0x0, symName: __ZNSt3__15tupleIJiiiiEEC2B7v160006IJiiiiELi0EEEDpOT_, symObjAddr: 0x5C28, symBinAddr: 0x100008AF4, symSize: 0x4C }
  - { offsetInCU: 0x150C4, offset: 0x150C4, size: 0x8, addend: 0x0, symName: __ZNSt3__112__tuple_implINS_15__tuple_indicesIJLm0ELm1ELm2ELm3EEEEJiiiiEEC1B7v160006IJLm0ELm1ELm2ELm3EEJiiiiEJEJEJiiiiEEENS1_IJXspT_EEEENS_13__tuple_typesIJDpT0_EEENS1_IJXspT1_EEEENS6_IJDpT2_EEEDpOT3_, symObjAddr: 0x5C74, symBinAddr: 0x100008B40, symSize: 0x4C }
  - { offsetInCU: 0x151B1, offset: 0x151B1, size: 0x8, addend: 0x0, symName: __ZNSt3__112__tuple_implINS_15__tuple_indicesIJLm0ELm1ELm2ELm3EEEEJiiiiEEC2B7v160006IJLm0ELm1ELm2ELm3EEJiiiiEJEJEJiiiiEEENS1_IJXspT_EEEENS_13__tuple_typesIJDpT0_EEENS1_IJXspT1_EEEENS6_IJDpT2_EEEDpOT3_, symObjAddr: 0x5CC0, symBinAddr: 0x100008B8C, symSize: 0x70 }
  - { offsetInCU: 0x1529E, offset: 0x1529E, size: 0x8, addend: 0x0, symName: __ZNSt3__112__tuple_leafILm0EiLb0EEC2B7v160006IivEEOT_, symObjAddr: 0x5D30, symBinAddr: 0x100008BFC, symSize: 0x24 }
  - { offsetInCU: 0x152E0, offset: 0x152E0, size: 0x8, addend: 0x0, symName: __ZNSt3__112__tuple_leafILm1EiLb0EEC2B7v160006IivEEOT_, symObjAddr: 0x5D54, symBinAddr: 0x100008C20, symSize: 0x24 }
  - { offsetInCU: 0x15322, offset: 0x15322, size: 0x8, addend: 0x0, symName: __ZNSt3__112__tuple_leafILm2EiLb0EEC2B7v160006IivEEOT_, symObjAddr: 0x5D78, symBinAddr: 0x100008C44, symSize: 0x24 }
  - { offsetInCU: 0x15364, offset: 0x15364, size: 0x8, addend: 0x0, symName: __ZNSt3__112__tuple_leafILm3EiLb0EEC2B7v160006IivEEOT_, symObjAddr: 0x5D9C, symBinAddr: 0x100008C68, symSize: 0x24 }
  - { offsetInCU: 0x153A6, offset: 0x153A6, size: 0x8, addend: 0x0, symName: __ZNSt3__16vectorINS_5tupleIJiiiiEEENS_9allocatorIS2_EEE21_ConstructTransactionD2B7v160006Ev, symObjAddr: 0x5DC0, symBinAddr: 0x100008C8C, symSize: 0x20 }
  - { offsetInCU: 0x153CE, offset: 0x153CE, size: 0x8, addend: 0x0, symName: __ZNKSt3__16vectorINS_5tupleIJiiiiEEENS_9allocatorIS2_EEE11__recommendB7v160006Em, symObjAddr: 0x5DE0, symBinAddr: 0x100008CAC, symSize: 0xB4 }
  - { offsetInCU: 0x15422, offset: 0x15422, size: 0x8, addend: 0x0, symName: __ZNSt3__114__split_bufferINS_5tupleIJiiiiEEERNS_9allocatorIS2_EEEC1EmmS5_, symObjAddr: 0x5E94, symBinAddr: 0x100008D60, symSize: 0x44 }
  - { offsetInCU: 0x15477, offset: 0x15477, size: 0x8, addend: 0x0, symName: __ZNSt3__114__split_bufferINS_5tupleIJiiiiEEERNS_9allocatorIS2_EEED1Ev, symObjAddr: 0x5FF0, symBinAddr: 0x100008EBC, symSize: 0x2C }
  - { offsetInCU: 0x154A1, offset: 0x154A1, size: 0x8, addend: 0x0, symName: __ZNKSt3__16vectorINS_5tupleIJiiiiEEENS_9allocatorIS2_EEE8max_sizeEv, symObjAddr: 0x601C, symBinAddr: 0x100008EE8, symSize: 0x60 }
  - { offsetInCU: 0x154C8, offset: 0x154C8, size: 0x8, addend: 0x0, symName: __ZNKSt3__16vectorINS_5tupleIJiiiiEEENS_9allocatorIS2_EEE20__throw_length_errorB7v160006Ev, symObjAddr: 0x607C, symBinAddr: 0x100008F48, symSize: 0x1C }
  - { offsetInCU: 0x154F7, offset: 0x154F7, size: 0x8, addend: 0x0, symName: __ZNSt3__116allocator_traitsINS_9allocatorINS_5tupleIJiiiiEEEEEE8max_sizeB7v160006IS4_vEEmRKS4_, symObjAddr: 0x6098, symBinAddr: 0x100008F64, symSize: 0x24 }
  - { offsetInCU: 0x15525, offset: 0x15525, size: 0x8, addend: 0x0, symName: __ZNKSt3__16vectorINS_5tupleIJiiiiEEENS_9allocatorIS2_EEE7__allocB7v160006Ev, symObjAddr: 0x60BC, symBinAddr: 0x100008F88, symSize: 0x28 }
  - { offsetInCU: 0x1554A, offset: 0x1554A, size: 0x8, addend: 0x0, symName: __ZNKSt3__19allocatorINS_5tupleIJiiiiEEEE8max_sizeB7v160006Ev, symObjAddr: 0x60E4, symBinAddr: 0x100008FB0, symSize: 0x14 }
  - { offsetInCU: 0x1556F, offset: 0x1556F, size: 0x8, addend: 0x0, symName: __ZNKSt3__117__compressed_pairIPNS_5tupleIJiiiiEEENS_9allocatorIS2_EEE6secondB7v160006Ev, symObjAddr: 0x60F8, symBinAddr: 0x100008FC4, symSize: 0x24 }
  - { offsetInCU: 0x15594, offset: 0x15594, size: 0x8, addend: 0x0, symName: __ZNKSt3__122__compressed_pair_elemINS_9allocatorINS_5tupleIJiiiiEEEEELi1ELb1EE5__getB7v160006Ev, symObjAddr: 0x611C, symBinAddr: 0x100008FE8, symSize: 0x14 }
  - { offsetInCU: 0x155B9, offset: 0x155B9, size: 0x8, addend: 0x0, symName: __ZNSt3__114__split_bufferINS_5tupleIJiiiiEEERNS_9allocatorIS2_EEEC2EmmS5_, symObjAddr: 0x6130, symBinAddr: 0x100008FFC, symSize: 0xD4 }
  - { offsetInCU: 0x1562B, offset: 0x1562B, size: 0x8, addend: 0x0, symName: __ZNSt3__117__compressed_pairIPNS_5tupleIJiiiiEEERNS_9allocatorIS2_EEEC1B7v160006IDnS6_EEOT_OT0_, symObjAddr: 0x6204, symBinAddr: 0x1000090D0, symSize: 0x3C }
  - { offsetInCU: 0x15682, offset: 0x15682, size: 0x8, addend: 0x0, symName: __ZNSt3__114__split_bufferINS_5tupleIJiiiiEEERNS_9allocatorIS2_EEE7__allocB7v160006Ev, symObjAddr: 0x6280, symBinAddr: 0x10000914C, symSize: 0x28 }
  - { offsetInCU: 0x156A7, offset: 0x156A7, size: 0x8, addend: 0x0, symName: __ZNSt3__114__split_bufferINS_5tupleIJiiiiEEERNS_9allocatorIS2_EEE9__end_capB7v160006Ev, symObjAddr: 0x62A8, symBinAddr: 0x100009174, symSize: 0x28 }
  - { offsetInCU: 0x156CC, offset: 0x156CC, size: 0x8, addend: 0x0, symName: __ZNSt3__117__compressed_pairIPNS_5tupleIJiiiiEEERNS_9allocatorIS2_EEEC2B7v160006IDnS6_EEOT_OT0_, symObjAddr: 0x62D0, symBinAddr: 0x10000919C, symSize: 0x48 }
  - { offsetInCU: 0x15723, offset: 0x15723, size: 0x8, addend: 0x0, symName: __ZNSt3__122__compressed_pair_elemIRNS_9allocatorINS_5tupleIJiiiiEEEEELi1ELb0EEC2B7v160006IS5_vEEOT_, symObjAddr: 0x6318, symBinAddr: 0x1000091E4, symSize: 0x20 }
  - { offsetInCU: 0x15764, offset: 0x15764, size: 0x8, addend: 0x0, symName: __ZNSt3__19allocatorINS_5tupleIJiiiiEEEE8allocateB7v160006Em, symObjAddr: 0x6338, symBinAddr: 0x100009204, symSize: 0x58 }
  - { offsetInCU: 0x15797, offset: 0x15797, size: 0x8, addend: 0x0, symName: __ZNSt3__117__compressed_pairIPNS_5tupleIJiiiiEEERNS_9allocatorIS2_EEE6secondB7v160006Ev, symObjAddr: 0x6390, symBinAddr: 0x10000925C, symSize: 0x28 }
  - { offsetInCU: 0x157BC, offset: 0x157BC, size: 0x8, addend: 0x0, symName: __ZNSt3__122__compressed_pair_elemIRNS_9allocatorINS_5tupleIJiiiiEEEEELi1ELb0EE5__getB7v160006Ev, symObjAddr: 0x63B8, symBinAddr: 0x100009284, symSize: 0x18 }
  - { offsetInCU: 0x157E1, offset: 0x157E1, size: 0x8, addend: 0x0, symName: __ZNSt3__117__compressed_pairIPNS_5tupleIJiiiiEEERNS_9allocatorIS2_EEE5firstB7v160006Ev, symObjAddr: 0x63D0, symBinAddr: 0x10000929C, symSize: 0x24 }
  - { offsetInCU: 0x15806, offset: 0x15806, size: 0x8, addend: 0x0, symName: __ZNSt3__116reverse_iteratorIPNS_5tupleIJiiiiEEEEC1B7v160006ES3_, symObjAddr: 0x6520, symBinAddr: 0x1000093EC, symSize: 0x34 }
  - { offsetInCU: 0x1583D, offset: 0x1583D, size: 0x8, addend: 0x0, symName: __ZNKSt3__116reverse_iteratorIPNS_5tupleIJiiiiEEEE4baseB7v160006Ev, symObjAddr: 0x6554, symBinAddr: 0x100009420, symSize: 0x18 }
  - { offsetInCU: 0x15862, offset: 0x15862, size: 0x8, addend: 0x0, symName: __ZNKSt3__16vectorINS_5tupleIJiiiiEEENS_9allocatorIS2_EEE14__annotate_newB7v160006Em, symObjAddr: 0x65A8, symBinAddr: 0x100009474, symSize: 0xAC }
  - { offsetInCU: 0x15896, offset: 0x15896, size: 0x8, addend: 0x0, symName: __ZNSt3__129_AllocatorDestroyRangeReverseINS_9allocatorINS_5tupleIJiiiiEEEEENS_16reverse_iteratorIPS3_EEEC1B7v160006ERS4_RS7_SA_, symObjAddr: 0x66B0, symBinAddr: 0x10000957C, symSize: 0x44 }
  - { offsetInCU: 0x158EC, offset: 0x158EC, size: 0x8, addend: 0x0, symName: __ZNSt3__116allocator_traitsINS_9allocatorINS_5tupleIJiiiiEEEEEE9constructB7v160006IS3_JS3_EvEEvRS4_PT_DpOT0_, symObjAddr: 0x673C, symBinAddr: 0x100009608, symSize: 0x34 }
  - { offsetInCU: 0x15943, offset: 0x15943, size: 0x8, addend: 0x0, symName: __ZNKSt3__116reverse_iteratorIPNS_5tupleIJiiiiEEEEdeB7v160006Ev, symObjAddr: 0x6794, symBinAddr: 0x100009660, symSize: 0x28 }
  - { offsetInCU: 0x15976, offset: 0x15976, size: 0x8, addend: 0x0, symName: __ZNSt3__116reverse_iteratorIPNS_5tupleIJiiiiEEEEppB7v160006Ev, symObjAddr: 0x67BC, symBinAddr: 0x100009688, symSize: 0x20 }
  - { offsetInCU: 0x1599B, offset: 0x1599B, size: 0x8, addend: 0x0, symName: __ZNSt3__128__exception_guard_exceptionsINS_29_AllocatorDestroyRangeReverseINS_9allocatorINS_5tupleIJiiiiEEEEENS_16reverse_iteratorIPS4_EEEEE10__completeB7v160006Ev, symObjAddr: 0x67DC, symBinAddr: 0x1000096A8, symSize: 0x1C }
  - { offsetInCU: 0x159C0, offset: 0x159C0, size: 0x8, addend: 0x0, symName: __ZNSt3__128__exception_guard_exceptionsINS_29_AllocatorDestroyRangeReverseINS_9allocatorINS_5tupleIJiiiiEEEEENS_16reverse_iteratorIPS4_EEEEED1B7v160006Ev, symObjAddr: 0x67F8, symBinAddr: 0x1000096C4, symSize: 0x2C }
  - { offsetInCU: 0x159E9, offset: 0x159E9, size: 0x8, addend: 0x0, symName: __ZNSt3__128__exception_guard_exceptionsINS_29_AllocatorDestroyRangeReverseINS_9allocatorINS_5tupleIJiiiiEEEEENS_16reverse_iteratorIPS4_EEEEEC1B7v160006ES9_, symObjAddr: 0x6824, symBinAddr: 0x1000096F0, symSize: 0x34 }
  - { offsetInCU: 0x15A21, offset: 0x15A21, size: 0x8, addend: 0x0, symName: __ZNSt3__128__exception_guard_exceptionsINS_29_AllocatorDestroyRangeReverseINS_9allocatorINS_5tupleIJiiiiEEEEENS_16reverse_iteratorIPS4_EEEEEC2B7v160006ES9_, symObjAddr: 0x6858, symBinAddr: 0x100009724, symSize: 0x30 }
  - { offsetInCU: 0x15A59, offset: 0x15A59, size: 0x8, addend: 0x0, symName: __ZNSt3__129_AllocatorDestroyRangeReverseINS_9allocatorINS_5tupleIJiiiiEEEEENS_16reverse_iteratorIPS3_EEEC2B7v160006ERS4_RS7_SA_, symObjAddr: 0x6888, symBinAddr: 0x100009754, symSize: 0x38 }
  - { offsetInCU: 0x15AAF, offset: 0x15AAF, size: 0x8, addend: 0x0, symName: __ZNSt3__19allocatorINS_5tupleIJiiiiEEEE9constructB7v160006IS2_JS2_EEEvPT_DpOT0_, symObjAddr: 0x68C0, symBinAddr: 0x10000978C, symSize: 0x28 }
  - { offsetInCU: 0x15B09, offset: 0x15B09, size: 0x8, addend: 0x0, symName: __ZNSt3__119__to_address_helperINS_16reverse_iteratorIPNS_5tupleIJiiiiEEEEEvE6__callB7v160006ERKS5_, symObjAddr: 0x68E8, symBinAddr: 0x1000097B4, symSize: 0x38 }
  - { offsetInCU: 0x15B2C, offset: 0x15B2C, size: 0x8, addend: 0x0, symName: __ZNKSt3__116reverse_iteratorIPNS_5tupleIJiiiiEEEEptB7v160006Ev, symObjAddr: 0x6920, symBinAddr: 0x1000097EC, symSize: 0x24 }
  - { offsetInCU: 0x15B51, offset: 0x15B51, size: 0x8, addend: 0x0, symName: __ZNSt3__128__exception_guard_exceptionsINS_29_AllocatorDestroyRangeReverseINS_9allocatorINS_5tupleIJiiiiEEEEENS_16reverse_iteratorIPS4_EEEEED2B7v160006Ev, symObjAddr: 0x6944, symBinAddr: 0x100009810, symSize: 0x50 }
  - { offsetInCU: 0x15B7A, offset: 0x15B7A, size: 0x8, addend: 0x0, symName: __ZNKSt3__129_AllocatorDestroyRangeReverseINS_9allocatorINS_5tupleIJiiiiEEEEENS_16reverse_iteratorIPS3_EEEclB7v160006Ev, symObjAddr: 0x6994, symBinAddr: 0x100009860, symSize: 0xB4 }
  - { offsetInCU: 0x15BA0, offset: 0x15BA0, size: 0x8, addend: 0x0, symName: __ZNSt3__116reverse_iteratorINS0_IPNS_5tupleIJiiiiEEEEEEC1B7v160006ES4_, symObjAddr: 0x6AB8, symBinAddr: 0x100009984, symSize: 0x3C }
  - { offsetInCU: 0x15BD7, offset: 0x15BD7, size: 0x8, addend: 0x0, symName: __ZNSt3__116reverse_iteratorINS0_IPNS_5tupleIJiiiiEEEEEEppB7v160006Ev, symObjAddr: 0x6B78, symBinAddr: 0x100009A44, symSize: 0x30 }
  - { offsetInCU: 0x15BFC, offset: 0x15BFC, size: 0x8, addend: 0x0, symName: __ZNKSt3__116reverse_iteratorINS0_IPNS_5tupleIJiiiiEEEEEE4baseB7v160006Ev, symObjAddr: 0x6BA8, symBinAddr: 0x100009A74, symSize: 0x24 }
  - { offsetInCU: 0x15C26, offset: 0x15C26, size: 0x8, addend: 0x0, symName: __ZNSt3__119__to_address_helperINS_16reverse_iteratorINS1_IPNS_5tupleIJiiiiEEEEEEEvE6__callB7v160006ERKS6_, symObjAddr: 0x6BCC, symBinAddr: 0x100009A98, symSize: 0x38 }
  - { offsetInCU: 0x15C49, offset: 0x15C49, size: 0x8, addend: 0x0, symName: __ZNKSt3__116reverse_iteratorINS0_IPNS_5tupleIJiiiiEEEEEEptB7v160006Ev, symObjAddr: 0x6C04, symBinAddr: 0x100009AD0, symSize: 0x24 }
  - { offsetInCU: 0x15C6E, offset: 0x15C6E, size: 0x8, addend: 0x0, symName: __ZNKSt3__116reverse_iteratorINS0_IPNS_5tupleIJiiiiEEEEEEdeB7v160006Ev, symObjAddr: 0x6C28, symBinAddr: 0x100009AF4, symSize: 0x34 }
  - { offsetInCU: 0x15CA1, offset: 0x15CA1, size: 0x8, addend: 0x0, symName: __ZNSt3__116reverse_iteratorIPNS_5tupleIJiiiiEEEEmmB7v160006Ev, symObjAddr: 0x6C5C, symBinAddr: 0x100009B28, symSize: 0x20 }
  - { offsetInCU: 0x15CC6, offset: 0x15CC6, size: 0x8, addend: 0x0, symName: __ZNSt3__116reverse_iteratorINS0_IPNS_5tupleIJiiiiEEEEEEC2B7v160006ES4_, symObjAddr: 0x6C7C, symBinAddr: 0x100009B48, symSize: 0x2C }
  - { offsetInCU: 0x15CFD, offset: 0x15CFD, size: 0x8, addend: 0x0, symName: __ZNSt3__116reverse_iteratorIPNS_5tupleIJiiiiEEEEC2B7v160006ES3_, symObjAddr: 0x6CA8, symBinAddr: 0x100009B74, symSize: 0x28 }
  - { offsetInCU: 0x15D34, offset: 0x15D34, size: 0x8, addend: 0x0, symName: __ZNSt3__114__split_bufferINS_5tupleIJiiiiEEERNS_9allocatorIS2_EEED2Ev, symObjAddr: 0x6CD0, symBinAddr: 0x100009B9C, symSize: 0x8C }
  - { offsetInCU: 0x15D5F, offset: 0x15D5F, size: 0x8, addend: 0x0, symName: __ZNSt3__114__split_bufferINS_5tupleIJiiiiEEERNS_9allocatorIS2_EEE5clearB7v160006Ev, symObjAddr: 0x6D5C, symBinAddr: 0x100009C28, symSize: 0x28 }
  - { offsetInCU: 0x15D84, offset: 0x15D84, size: 0x8, addend: 0x0, symName: __ZNKSt3__114__split_bufferINS_5tupleIJiiiiEEERNS_9allocatorIS2_EEE8capacityB7v160006Ev, symObjAddr: 0x6D84, symBinAddr: 0x100009C50, symSize: 0x40 }
  - { offsetInCU: 0x15DA9, offset: 0x15DA9, size: 0x8, addend: 0x0, symName: __ZNSt3__114__split_bufferINS_5tupleIJiiiiEEERNS_9allocatorIS2_EEE17__destruct_at_endB7v160006EPS2_, symObjAddr: 0x6DC4, symBinAddr: 0x100009C90, symSize: 0x2C }
  - { offsetInCU: 0x15DDB, offset: 0x15DDB, size: 0x8, addend: 0x0, symName: __ZNSt3__114__split_bufferINS_5tupleIJiiiiEEERNS_9allocatorIS2_EEE17__destruct_at_endB7v160006EPS2_NS_17integral_constantIbLb0EEE, symObjAddr: 0x6DF0, symBinAddr: 0x100009CBC, symSize: 0x80 }
  - { offsetInCU: 0x15E1B, offset: 0x15E1B, size: 0x8, addend: 0x0, symName: __ZNKSt3__114__split_bufferINS_5tupleIJiiiiEEERNS_9allocatorIS2_EEE9__end_capB7v160006Ev, symObjAddr: 0x6E70, symBinAddr: 0x100009D3C, symSize: 0x28 }
  - { offsetInCU: 0x15E40, offset: 0x15E40, size: 0x8, addend: 0x0, symName: __ZNKSt3__117__compressed_pairIPNS_5tupleIJiiiiEEERNS_9allocatorIS2_EEE5firstB7v160006Ev, symObjAddr: 0x6E98, symBinAddr: 0x100009D64, symSize: 0x24 }
  - { offsetInCU: 0x15E65, offset: 0x15E65, size: 0x8, addend: 0x0, symName: __ZNKSt3__111__wrap_iterIPNS_5tupleIJiiiiEEEE4baseB7v160006Ev, symObjAddr: 0x70BC, symBinAddr: 0x100009F88, symSize: 0x18 }
  - { offsetInCU: 0x15E8A, offset: 0x15E8A, size: 0x8, addend: 0x0, symName: __ZNKSt3__111__wrap_iterIPNS_5tupleIJiiiiEEEEplB7v160006El, symObjAddr: 0x70D4, symBinAddr: 0x100009FA0, symSize: 0x3C }
  - { offsetInCU: 0x15ED5, offset: 0x15ED5, size: 0x8, addend: 0x0, symName: __ZNKSt3__17greaterIvEclB7v160006IRNS_5tupleIJiiiiEEES5_EEDTgtclsr3stdE7forwardIT_Efp_Eclsr3stdE7forwardIT0_Efp0_EEOS6_OS7_, symObjAddr: 0x7110, symBinAddr: 0x100009FDC, symSize: 0x34 }
  - { offsetInCU: 0x15F2A, offset: 0x15F2A, size: 0x8, addend: 0x0, symName: __ZNKSt3__111__wrap_iterIPNS_5tupleIJiiiiEEEEdeB7v160006Ev, symObjAddr: 0x7144, symBinAddr: 0x10000A010, symSize: 0x18 }
  - { offsetInCU: 0x15F4F, offset: 0x15F4F, size: 0x8, addend: 0x0, symName: __ZNSt3__111__wrap_iterIPNS_5tupleIJiiiiEEEEmmB7v160006Ev, symObjAddr: 0x715C, symBinAddr: 0x10000A028, symSize: 0x20 }
  - { offsetInCU: 0x15F74, offset: 0x15F74, size: 0x8, addend: 0x0, symName: __ZNSt3__18_IterOpsINS_17_ClassicAlgPolicyEE11__iter_moveB7v160006IRNS_11__wrap_iterIPNS_5tupleIJiiiiEEEEEEENS_9enable_ifIXsr12is_referenceIDTdeclsr3stdE7declvalIRT_EEEEE5valueEDTclsr3stdE4movedeclsr3stdE7declvalISC_EEEEE4typeEOSB_, symObjAddr: 0x717C, symBinAddr: 0x10000A048, symSize: 0x28 }
  - { offsetInCU: 0x15FA0, offset: 0x15FA0, size: 0x8, addend: 0x0, symName: __ZNSt3__15tupleIJiiiiEEaSB7v160006EOS1_, symObjAddr: 0x71A4, symBinAddr: 0x10000A070, symSize: 0x3C }
  - { offsetInCU: 0x15FD4, offset: 0x15FD4, size: 0x8, addend: 0x0, symName: __ZNSt3__111__wrap_iterIPNS_5tupleIJiiiiEEEEpLB7v160006El, symObjAddr: 0x71E0, symBinAddr: 0x10000A0AC, symSize: 0x28 }
  - { offsetInCU: 0x1600C, offset: 0x1600C, size: 0x8, addend: 0x0, symName: __ZNSt3__112__tuple_lessILm4EEclB7v160006INS_5tupleIJiiiiEEES4_EEbRKT_RKT0_, symObjAddr: 0x726C, symBinAddr: 0x10000A138, symSize: 0xD8 }
  - { offsetInCU: 0x16075, offset: 0x16075, size: 0x8, addend: 0x0, symName: __ZNSt3__112__tuple_lessILm3EEclB7v160006INS_5tupleIJiiiiEEES4_EEbRKT_RKT0_, symObjAddr: 0x7368, symBinAddr: 0x10000A234, symSize: 0xDC }
  - { offsetInCU: 0x160D9, offset: 0x160D9, size: 0x8, addend: 0x0, symName: __ZNKSt3__112__tuple_leafILm0EiLb0EE3getB7v160006Ev, symObjAddr: 0x7444, symBinAddr: 0x10000A310, symSize: 0x14 }
  - { offsetInCU: 0x16103, offset: 0x16103, size: 0x8, addend: 0x0, symName: __ZNSt3__112__tuple_lessILm2EEclB7v160006INS_5tupleIJiiiiEEES4_EEbRKT_RKT0_, symObjAddr: 0x7480, symBinAddr: 0x10000A34C, symSize: 0xDC }
  - { offsetInCU: 0x16167, offset: 0x16167, size: 0x8, addend: 0x0, symName: __ZNKSt3__112__tuple_leafILm1EiLb0EE3getB7v160006Ev, symObjAddr: 0x755C, symBinAddr: 0x10000A428, symSize: 0x14 }
  - { offsetInCU: 0x16191, offset: 0x16191, size: 0x8, addend: 0x0, symName: __ZNSt3__112__tuple_lessILm1EEclB7v160006INS_5tupleIJiiiiEEES4_EEbRKT_RKT0_, symObjAddr: 0x7598, symBinAddr: 0x10000A464, symSize: 0xDC }
  - { offsetInCU: 0x161F5, offset: 0x161F5, size: 0x8, addend: 0x0, symName: __ZNKSt3__112__tuple_leafILm2EiLb0EE3getB7v160006Ev, symObjAddr: 0x7674, symBinAddr: 0x10000A540, symSize: 0x14 }
  - { offsetInCU: 0x1621F, offset: 0x1621F, size: 0x8, addend: 0x0, symName: __ZNSt3__112__tuple_lessILm0EEclB7v160006INS_5tupleIJiiiiEEES4_EEbRKT_RKT0_, symObjAddr: 0x76B0, symBinAddr: 0x10000A57C, symSize: 0x20 }
  - { offsetInCU: 0x1626C, offset: 0x1626C, size: 0x8, addend: 0x0, symName: __ZNKSt3__112__tuple_leafILm3EiLb0EE3getB7v160006Ev, symObjAddr: 0x76D0, symBinAddr: 0x10000A59C, symSize: 0x14 }
  - { offsetInCU: 0x16291, offset: 0x16291, size: 0x8, addend: 0x0, symName: __ZNSt3__18_IterOpsINS_17_ClassicAlgPolicyEE25__validate_iter_referenceB7v160006IRNS_11__wrap_iterIPNS_5tupleIJiiiiEEEEEEEvv, symObjAddr: 0x76E4, symBinAddr: 0x10000A5B0, symSize: 0x4 }
  - { offsetInCU: 0x162AF, offset: 0x162AF, size: 0x8, addend: 0x0, symName: __ZNSt3__112__tuple_leafILm0EiLb0EE3getB7v160006Ev, symObjAddr: 0x7880, symBinAddr: 0x10000A74C, symSize: 0x14 }
  - { offsetInCU: 0x162D4, offset: 0x162D4, size: 0x8, addend: 0x0, symName: __ZNSt3__112__tuple_leafILm1EiLb0EE3getB7v160006Ev, symObjAddr: 0x7894, symBinAddr: 0x10000A760, symSize: 0x14 }
  - { offsetInCU: 0x162F9, offset: 0x162F9, size: 0x8, addend: 0x0, symName: __ZNSt3__112__tuple_leafILm2EiLb0EE3getB7v160006Ev, symObjAddr: 0x78A8, symBinAddr: 0x10000A774, symSize: 0x14 }
  - { offsetInCU: 0x1631E, offset: 0x1631E, size: 0x8, addend: 0x0, symName: __ZNSt3__112__tuple_leafILm3EiLb0EE3getB7v160006Ev, symObjAddr: 0x78BC, symBinAddr: 0x10000A788, symSize: 0x14 }
  - { offsetInCU: 0x16343, offset: 0x16343, size: 0x8, addend: 0x0, symName: __ZNSt3__16vectorINS_5tupleIJiiiiEEENS_9allocatorIS2_EEE11__make_iterB7v160006EPS2_, symObjAddr: 0x78D0, symBinAddr: 0x10000A79C, symSize: 0x34 }
  - { offsetInCU: 0x16377, offset: 0x16377, size: 0x8, addend: 0x0, symName: __ZNSt3__111__wrap_iterIPNS_5tupleIJiiiiEEEEC1B7v160006EPKvS3_, symObjAddr: 0x7904, symBinAddr: 0x10000A7D0, symSize: 0x3C }
  - { offsetInCU: 0x163BC, offset: 0x163BC, size: 0x8, addend: 0x0, symName: __ZNSt3__111__wrap_iterIPNS_5tupleIJiiiiEEEEC2B7v160006EPKvS3_, symObjAddr: 0x7940, symBinAddr: 0x10000A80C, symSize: 0x24 }
  - { offsetInCU: 0x16401, offset: 0x16401, size: 0x8, addend: 0x0, symName: __ZNKSt3__16vectorINS_5tupleIJiiiiEEENS_9allocatorIS2_EEE5emptyB7v160006Ev, symObjAddr: 0x7964, symBinAddr: 0x10000A830, symSize: 0x28 }
  - { offsetInCU: 0x16426, offset: 0x16426, size: 0x8, addend: 0x0, symName: __ZNKSt3__16vectorINS_5tupleIJiiiiEEENS_9allocatorIS2_EEE5frontB7v160006Ev, symObjAddr: 0x798C, symBinAddr: 0x10000A858, symSize: 0x18 }
  - { offsetInCU: 0x1644B, offset: 0x1644B, size: 0x8, addend: 0x0, symName: __ZNSt3__112__tuple_leafILm0ERiLb0EE3getB7v160006Ev, symObjAddr: 0x7B20, symBinAddr: 0x10000A9EC, symSize: 0x18 }
  - { offsetInCU: 0x16470, offset: 0x16470, size: 0x8, addend: 0x0, symName: __ZNSt3__112__tuple_leafILm1ERiLb0EE3getB7v160006Ev, symObjAddr: 0x7B38, symBinAddr: 0x10000AA04, symSize: 0x18 }
  - { offsetInCU: 0x16495, offset: 0x16495, size: 0x8, addend: 0x0, symName: __ZNSt3__112__tuple_leafILm2ERiLb0EE3getB7v160006Ev, symObjAddr: 0x7B50, symBinAddr: 0x10000AA1C, symSize: 0x18 }
  - { offsetInCU: 0x164BA, offset: 0x164BA, size: 0x8, addend: 0x0, symName: __ZNSt3__112__tuple_leafILm3ERiLb0EE3getB7v160006Ev, symObjAddr: 0x7B68, symBinAddr: 0x10000AA34, symSize: 0x18 }
  - { offsetInCU: 0x164DE, offset: 0x164DE, size: 0x8, addend: 0x0, symName: __ZNSt3__16vectorINS_5tupleIJiiiiEEENS_9allocatorIS2_EEE8pop_backEv, symObjAddr: 0x7BD8, symBinAddr: 0x10000AAA4, symSize: 0x2C }
  - { offsetInCU: 0x16505, offset: 0x16505, size: 0x8, addend: 0x0, symName: __ZNSt3__111__wrap_iterIPNS_5tupleIJiiiiEEEEppB7v160006Ev, symObjAddr: 0x7EBC, symBinAddr: 0x10000AD88, symSize: 0x20 }
  - { offsetInCU: 0x1652A, offset: 0x1652A, size: 0x8, addend: 0x0, symName: __ZNSt3__16vectorINS_5tupleIJiiiiEEENS_9allocatorIS2_EEE17__destruct_at_endB7v160006EPS2_, symObjAddr: 0x7EDC, symBinAddr: 0x10000ADA8, symSize: 0x60 }
  - { offsetInCU: 0x1656D, offset: 0x1656D, size: 0x8, addend: 0x0, symName: __ZNSt3__16vectorINS_5tupleIJiiiiEEENS_9allocatorIS2_EEE27__invalidate_iterators_pastB7v160006EPS2_, symObjAddr: 0x7F3C, symBinAddr: 0x10000AE08, symSize: 0x14 }
  - { offsetInCU: 0x165A3, offset: 0x165A3, size: 0x8, addend: 0x0, symName: __ZNKSt3__16vectorINS_5tupleIJiiiiEEENS_9allocatorIS2_EEE17__annotate_shrinkB7v160006Em, symObjAddr: 0x7F50, symBinAddr: 0x10000AE1C, symSize: 0xB4 }
  - { offsetInCU: 0x165D6, offset: 0x165D6, size: 0x8, addend: 0x0, symName: __ZNSt3__16vectorINS_5tupleIJiiiiEEENS_9allocatorIS2_EEE12emplace_backIJRiS7_S7_S7_EEEvDpOT_, symObjAddr: 0x8004, symBinAddr: 0x10000AED0, symSize: 0x90 }
  - { offsetInCU: 0x16653, offset: 0x16653, size: 0x8, addend: 0x0, symName: __ZNSt3__16vectorINS_5tupleIJiiiiEEENS_9allocatorIS2_EEE22__construct_one_at_endB7v160006IJRiS7_S7_S7_EEEvDpOT_, symObjAddr: 0x8094, symBinAddr: 0x10000AF60, symSize: 0xA8 }
  - { offsetInCU: 0x166DC, offset: 0x166DC, size: 0x8, addend: 0x0, symName: __ZNSt3__16vectorINS_5tupleIJiiiiEEENS_9allocatorIS2_EEE24__emplace_back_slow_pathIJRiS7_S7_S7_EEEvDpOT_, symObjAddr: 0x813C, symBinAddr: 0x10000B008, symSize: 0xF0 }
  - { offsetInCU: 0x16777, offset: 0x16777, size: 0x8, addend: 0x0, symName: __ZNSt3__116allocator_traitsINS_9allocatorINS_5tupleIJiiiiEEEEEE9constructB7v160006IS3_JRiS7_S7_S7_EvEEvRS4_PT_DpOT0_, symObjAddr: 0x822C, symBinAddr: 0x10000B0F8, symSize: 0x4C }
  - { offsetInCU: 0x1680A, offset: 0x1680A, size: 0x8, addend: 0x0, symName: __ZNSt3__19allocatorINS_5tupleIJiiiiEEEE9constructB7v160006IS2_JRiS5_S5_S5_EEEvPT_DpOT0_, symObjAddr: 0x8278, symBinAddr: 0x10000B144, symSize: 0x48 }
  - { offsetInCU: 0x16898, offset: 0x16898, size: 0x8, addend: 0x0, symName: __ZNSt3__15tupleIJiiiiEEC1B7v160006IJRiS3_S3_S3_ELi0EEEDpOT_, symObjAddr: 0x82C0, symBinAddr: 0x10000B18C, symSize: 0x4C }
  - { offsetInCU: 0x1691D, offset: 0x1691D, size: 0x8, addend: 0x0, symName: __ZNSt3__15tupleIJiiiiEEC2B7v160006IJRiS3_S3_S3_ELi0EEEDpOT_, symObjAddr: 0x830C, symBinAddr: 0x10000B1D8, symSize: 0x4C }
  - { offsetInCU: 0x169A2, offset: 0x169A2, size: 0x8, addend: 0x0, symName: __ZNSt3__112__tuple_implINS_15__tuple_indicesIJLm0ELm1ELm2ELm3EEEEJiiiiEEC1B7v160006IJLm0ELm1ELm2ELm3EEJiiiiEJEJEJRiS5_S5_S5_EEENS1_IJXspT_EEEENS_13__tuple_typesIJDpT0_EEENS1_IJXspT1_EEEENS7_IJDpT2_EEEDpOT3_, symObjAddr: 0x8358, symBinAddr: 0x10000B224, symSize: 0x4C }
  - { offsetInCU: 0x16A8F, offset: 0x16A8F, size: 0x8, addend: 0x0, symName: __ZNSt3__112__tuple_implINS_15__tuple_indicesIJLm0ELm1ELm2ELm3EEEEJiiiiEEC2B7v160006IJLm0ELm1ELm2ELm3EEJiiiiEJEJEJRiS5_S5_S5_EEENS1_IJXspT_EEEENS_13__tuple_typesIJDpT0_EEENS1_IJXspT1_EEEENS7_IJDpT2_EEEDpOT3_, symObjAddr: 0x83A4, symBinAddr: 0x10000B270, symSize: 0x70 }
  - { offsetInCU: 0x16B7C, offset: 0x16B7C, size: 0x8, addend: 0x0, symName: __ZNSt3__112__tuple_leafILm0EiLb0EEC2B7v160006IRivEEOT_, symObjAddr: 0x8414, symBinAddr: 0x10000B2E0, symSize: 0x24 }
  - { offsetInCU: 0x16BBE, offset: 0x16BBE, size: 0x8, addend: 0x0, symName: __ZNSt3__112__tuple_leafILm1EiLb0EEC2B7v160006IRivEEOT_, symObjAddr: 0x8438, symBinAddr: 0x10000B304, symSize: 0x24 }
  - { offsetInCU: 0x16C00, offset: 0x16C00, size: 0x8, addend: 0x0, symName: __ZNSt3__112__tuple_leafILm2EiLb0EEC2B7v160006IRivEEOT_, symObjAddr: 0x845C, symBinAddr: 0x10000B328, symSize: 0x24 }
  - { offsetInCU: 0x16C42, offset: 0x16C42, size: 0x8, addend: 0x0, symName: __ZNSt3__112__tuple_leafILm3EiLb0EEC2B7v160006IRivEEOT_, symObjAddr: 0x8480, symBinAddr: 0x10000B34C, symSize: 0x24 }
...
