---
triple:          'arm64-apple-darwin'
binary-path:     shopping
relocations:
  - { offsetInCU: 0x3F, offset: 0x3F, size: 0x8, addend: 0x0, symName: _customers, symObjAddr: 0x54B98, symBinAddr: 0x100010000, symSize: 0x0 }
  - { offsetInCU: 0x9368, offset: 0x9368, size: 0x8, addend: 0x0, symName: __ZNSt3__124__put_character_sequenceB7v160006IcNS_11char_traitsIcEEEERNS_13basic_ostreamIT_T0_EES7_PKS4_m, symObjAddr: 0x8C3C, symBinAddr: 0x100009C68, symSize: 0x1EC }
  - { offsetInCU: 0xAF8F, offset: 0xAF8F, size: 0x8, addend: 0x0, symName: __ZNSt3__1lsB7v160006INS_11char_traitsIcEEEERNS_13basic_ostreamIcT_EES6_PKc, symObjAddr: 0x400, symBinAddr: 0x10000142C, symSize: 0x48 }
  - { offsetInCU: 0xAFD5, offset: 0xAFD5, size: 0x8, addend: 0x0, symName: __ZNSt3__1neB7v160006IP8CustomerEEbRKNS_11__wrap_iterIT_EES7_, symObjAddr: 0x4A8, symBinAddr: 0x1000014D4, symSize: 0x34 }
  - { offsetInCU: 0xB018, offset: 0xB018, size: 0x8, addend: 0x0, symName: __ZNSt3__14endlB7v160006IcNS_11char_traitsIcEEEERNS_13basic_ostreamIT_T0_EES7_, symObjAddr: 0x520, symBinAddr: 0x10000154C, symSize: 0x58 }
  - { offsetInCU: 0xB058, offset: 0xB058, size: 0x8, addend: 0x0, symName: __ZNSt3__1neB7v160006IP7CounterEEbRKNS_11__wrap_iterIT_EES7_, symObjAddr: 0x9A8, symBinAddr: 0x1000019D4, symSize: 0x34 }
  - { offsetInCU: 0xB09B, offset: 0xB09B, size: 0x8, addend: 0x0, symName: __ZNSt3__1neB7v160006ERKNS_16__deque_iteratorI8CustomerPS1_RS1_PS2_lLl512EEES7_, symObjAddr: 0xB58, symBinAddr: 0x100001B84, symSize: 0x34 }
  - { offsetInCU: 0xB0D8, offset: 0xB0D8, size: 0x8, addend: 0x0, symName: __ZNSt3__1neB7v160006INS_11__wrap_iterIP7CounterEES4_EEbRKNS_16reverse_iteratorIT_EERKNS5_IT0_EE, symObjAddr: 0xDD4, symBinAddr: 0x100001E00, symSize: 0x54 }
  - { offsetInCU: 0xB124, offset: 0xB124, size: 0x8, addend: 0x0, symName: __ZNSt3__119__libcpp_deallocateB7v160006EPvmm, symObjAddr: 0x18F4, symBinAddr: 0x100002920, symSize: 0x30 }
  - { offsetInCU: 0xB16C, offset: 0xB16C, size: 0x8, addend: 0x0, symName: __ZNSt3__127__do_deallocate_handle_sizeB7v160006IJEEEvPvmDpT_, symObjAddr: 0x1924, symBinAddr: 0x100002950, symSize: 0x28 }
  - { offsetInCU: 0xB1AA, offset: 0xB1AA, size: 0x8, addend: 0x0, symName: __ZNSt3__124__libcpp_operator_deleteB7v160006IJPvEEEvDpT_, symObjAddr: 0x194C, symBinAddr: 0x100002978, symSize: 0x24 }
  - { offsetInCU: 0xB1DF, offset: 0xB1DF, size: 0x8, addend: 0x0, symName: __ZNSt3__112__to_addressB7v160006IP8CustomerEEPT_S4_, symObjAddr: 0x1BD0, symBinAddr: 0x100002BFC, symSize: 0x14 }
  - { offsetInCU: 0xB214, offset: 0xB214, size: 0x8, addend: 0x0, symName: __ZNSt3__1eqB7v160006IP8CustomerEEbRKNS_11__wrap_iterIT_EES7_, symObjAddr: 0x1CD0, symBinAddr: 0x100002CFC, symSize: 0x48 }
  - { offsetInCU: 0xB257, offset: 0xB257, size: 0x8, addend: 0x0, symName: __ZNSt3__1eqB7v160006IP7CounterEEbRKNS_11__wrap_iterIT_EES7_, symObjAddr: 0x1D30, symBinAddr: 0x100002D5C, symSize: 0x48 }
  - { offsetInCU: 0xB29A, offset: 0xB29A, size: 0x8, addend: 0x0, symName: __ZNSt3__119__debug_db_insert_cB7v160006INS_6vectorI8CustomerNS_9allocatorIS2_EEEEEEvPT_, symObjAddr: 0x1E24, symBinAddr: 0x100002E50, symSize: 0x10 }
  - { offsetInCU: 0xB2CB, offset: 0xB2CB, size: 0x8, addend: 0x0, symName: __ZNSt3__118__debug_db_erase_cB7v160006INS_6vectorI8CustomerNS_9allocatorIS2_EEEEEEvPT_, symObjAddr: 0x207C, symBinAddr: 0x1000030A8, symSize: 0x10 }
  - { offsetInCU: 0xB2FC, offset: 0xB2FC, size: 0x8, addend: 0x0, symName: __ZNSt3__112__to_addressB7v160006I8CustomerEEPT_S3_, symObjAddr: 0x2164, symBinAddr: 0x100003190, symSize: 0x14 }
  - { offsetInCU: 0xB331, offset: 0xB331, size: 0x8, addend: 0x0, symName: __ZNSt3__119__debug_db_insert_cB7v160006INS_6vectorI7CounterNS_9allocatorIS2_EEEEEEvPT_, symObjAddr: 0x231C, symBinAddr: 0x100003348, symSize: 0x10 }
  - { offsetInCU: 0xB362, offset: 0xB362, size: 0x8, addend: 0x0, symName: __ZNSt3__118__debug_db_erase_cB7v160006INS_6vectorI7CounterNS_9allocatorIS2_EEEEEEvPT_, symObjAddr: 0x25E0, symBinAddr: 0x10000360C, symSize: 0x10 }
  - { offsetInCU: 0xB393, offset: 0xB393, size: 0x8, addend: 0x0, symName: __ZNSt3__112__to_addressB7v160006I7CounterEEPT_S3_, symObjAddr: 0x26FC, symBinAddr: 0x100003728, symSize: 0x14 }
  - { offsetInCU: 0xB3C8, offset: 0xB3C8, size: 0x8, addend: 0x0, symName: __ZNSt3__13maxB7v160006ImEERKT_S3_S3_, symObjAddr: 0x2E70, symBinAddr: 0x100003E9C, symSize: 0x2C }
  - { offsetInCU: 0xB40B, offset: 0xB40B, size: 0x8, addend: 0x0, symName: __ZNSt3__13minB7v160006ImEERKT_S3_S3_, symObjAddr: 0x2E9C, symBinAddr: 0x100003EC8, symSize: 0x2C }
  - { offsetInCU: 0xB64F, offset: 0xB64F, size: 0x8, addend: 0x0, symName: __ZNSt3__13minB7v160006ImNS_6__lessImmEEEERKT_S5_S5_T0_, symObjAddr: 0x2F28, symBinAddr: 0x100003F54, symSize: 0x54 }
  - { offsetInCU: 0xB6E4, offset: 0xB6E4, size: 0x8, addend: 0x0, symName: __ZNSt3__120__throw_length_errorB7v160006EPKc, symObjAddr: 0x3004, symBinAddr: 0x100004030, symSize: 0x64 }
  - { offsetInCU: 0xB70C, offset: 0xB70C, size: 0x8, addend: 0x0, symName: __ZNSt3__13maxB7v160006ImNS_6__lessImmEEEERKT_S5_S5_T0_, symObjAddr: 0x30E8, symBinAddr: 0x100004114, symSize: 0x54 }
  - { offsetInCU: 0xB766, offset: 0xB766, size: 0x8, addend: 0x0, symName: __ZNSt3__119__allocate_at_leastB7v160006INS_9allocatorI8CustomerEEEENS_19__allocation_resultINS_16allocator_traitsIT_E7pointerEEERS6_m, symObjAddr: 0x324C, symBinAddr: 0x100004278, symSize: 0x40 }
  - { offsetInCU: 0xB7A9, offset: 0xB7A9, size: 0x8, addend: 0x0, symName: __ZNSt3__117__libcpp_allocateB7v160006Emm, symObjAddr: 0x33D0, symBinAddr: 0x1000043FC, symSize: 0x28 }
  - { offsetInCU: 0xB7E6, offset: 0xB7E6, size: 0x8, addend: 0x0, symName: __ZNSt3__121__libcpp_operator_newB7v160006IJmEEEPvDpT_, symObjAddr: 0x33F8, symBinAddr: 0x100004424, symSize: 0x24 }
  - { offsetInCU: 0xB81F, offset: 0xB81F, size: 0x8, addend: 0x0, symName: __ZNSt3__142__uninitialized_allocator_move_if_noexceptB7v160006INS_9allocatorI8CustomerEENS_16reverse_iteratorIPS2_EES6_S2_vEET1_RT_T0_SA_S7_, symObjAddr: 0x3480, symBinAddr: 0x1000044AC, symSize: 0x78 }
  - { offsetInCU: 0xB89C, offset: 0xB89C, size: 0x8, addend: 0x0, symName: __ZNSt3__14swapB7v160006IP8CustomerEENS_9enable_ifIXaasr21is_move_constructibleIT_EE5valuesr18is_move_assignableIS4_EE5valueEvE4typeERS4_S7_, symObjAddr: 0x3544, symBinAddr: 0x100004570, symSize: 0x3C }
  - { offsetInCU: 0xB8ED, offset: 0xB8ED, size: 0x8, addend: 0x0, symName: __ZNSt3__125__debug_db_invalidate_allB7v160006INS_6vectorI8CustomerNS_9allocatorIS2_EEEEEEvPT_, symObjAddr: 0x362C, symBinAddr: 0x100004658, symSize: 0x10 }
  - { offsetInCU: 0xB91E, offset: 0xB91E, size: 0x8, addend: 0x0, symName: __ZNSt3__14moveB7v160006INS_16reverse_iteratorIP8CustomerEES4_EET0_T_S6_S5_, symObjAddr: 0x363C, symBinAddr: 0x100004668, symSize: 0x78 }
  - { offsetInCU: 0xB978, offset: 0xB978, size: 0x8, addend: 0x0, symName: __ZNSt3__16__moveB7v160006INS_17_ClassicAlgPolicyENS_16reverse_iteratorIP8CustomerEES5_S5_EENS_4pairIT0_T2_EES7_T1_S8_, symObjAddr: 0x36B4, symBinAddr: 0x1000046E0, symSize: 0x64 }
  - { offsetInCU: 0xB9E4, offset: 0xB9E4, size: 0x8, addend: 0x0, symName: __ZNSt3__123__dispatch_copy_or_moveB7v160006INS_17_ClassicAlgPolicyENS_11__move_loopIS1_EENS_14__move_trivialENS_16reverse_iteratorIP8CustomerEES8_S8_EENS_4pairIT2_T4_EESA_T3_SB_, symObjAddr: 0x3718, symBinAddr: 0x100004744, symSize: 0x64 }
  - { offsetInCU: 0xBA62, offset: 0xBA62, size: 0x8, addend: 0x0, symName: __ZNSt3__121__unwrap_and_dispatchB7v160006INS_10__overloadINS_11__move_loopINS_17_ClassicAlgPolicyEEENS_14__move_trivialEEENS_16reverse_iteratorIP8CustomerEESA_SA_Li0EEENS_4pairIT0_T2_EESC_T1_SD_, symObjAddr: 0x377C, symBinAddr: 0x1000047A8, symSize: 0x12C }
  - { offsetInCU: 0xBAF2, offset: 0xBAF2, size: 0x8, addend: 0x0, symName: __ZNSt3__114__unwrap_rangeB7v160006INS_16reverse_iteratorIP8CustomerEES4_EENS_4pairIT0_S6_EET_S8_, symObjAddr: 0x38A8, symBinAddr: 0x1000048D4, symSize: 0x84 }
  - { offsetInCU: 0xBC6D, offset: 0xBC6D, size: 0x8, addend: 0x0, symName: __ZNSt3__113__unwrap_iterB7v160006INS_16reverse_iteratorIP8CustomerEENS_18__unwrap_iter_implIS4_Lb0EEELi0EEEDTclsrT0_8__unwrapclsr3stdE7declvalIT_EEEES8_, symObjAddr: 0x39CC, symBinAddr: 0x1000049F8, symSize: 0x44 }
  - { offsetInCU: 0xBCB1, offset: 0xBCB1, size: 0x8, addend: 0x0, symName: __ZNSt3__19make_pairB7v160006INS_16reverse_iteratorIP8CustomerEES4_EENS_4pairINS_18__unwrap_ref_decayIT_E4typeENS6_IT0_E4typeEEEOS7_OSA_, symObjAddr: 0x3A10, symBinAddr: 0x100004A3C, symSize: 0x38 }
  - { offsetInCU: 0xBD00, offset: 0xBD00, size: 0x8, addend: 0x0, symName: __ZNSt3__114__rewrap_rangeB7v160006INS_16reverse_iteratorIP8CustomerEES4_EET_S5_T0_, symObjAddr: 0x3A48, symBinAddr: 0x100004A74, symSize: 0x5C }
  - { offsetInCU: 0xBD4C, offset: 0xBD4C, size: 0x8, addend: 0x0, symName: __ZNSt3__113__rewrap_iterB7v160006INS_16reverse_iteratorIP8CustomerEES4_NS_18__unwrap_iter_implIS4_Lb0EEEEET_S7_T0_, symObjAddr: 0x3AA4, symBinAddr: 0x100004AD0, symSize: 0x74 }
  - { offsetInCU: 0xBDA1, offset: 0xBDA1, size: 0x8, addend: 0x0, symName: __ZNSt3__1neB7v160006IP8CustomerS2_EEbRKNS_16reverse_iteratorIT_EERKNS3_IT0_EE, symObjAddr: 0x3B18, symBinAddr: 0x100004B44, symSize: 0x48 }
  - { offsetInCU: 0xBEBB, offset: 0xBEBB, size: 0x8, addend: 0x0, symName: __ZNSt3__18distanceB7v160006INS_16__deque_iteratorI8CustomerPKS2_RS3_PKS4_lLl512EEEEENS_15iterator_traitsIT_E15difference_typeESA_SA_, symObjAddr: 0x4990, symBinAddr: 0x1000059BC, symSize: 0x4C }
  - { offsetInCU: 0xBEFE, offset: 0xBEFE, size: 0x8, addend: 0x0, symName: __ZNSt3__1neB7v160006ERKNS_5dequeI8CustomerNS_9allocatorIS1_EEE13__deque_rangeES7_, symObjAddr: 0x50E8, symBinAddr: 0x100006114, symSize: 0x34 }
  - { offsetInCU: 0xBF3B, offset: 0xBF3B, size: 0x8, addend: 0x0, symName: __ZNSt3__110__distanceB7v160006INS_16__deque_iteratorI8CustomerPKS2_RS3_PKS4_lLl512EEEEENS_15iterator_traitsIT_E15difference_typeESA_SA_NS_26random_access_iterator_tagE, symObjAddr: 0x52EC, symBinAddr: 0x100006318, symSize: 0x38 }
  - { offsetInCU: 0xBF88, offset: 0xBF88, size: 0x8, addend: 0x0, symName: __ZNSt3__1miB7v160006ERKNS_16__deque_iteratorI8CustomerPKS1_RS2_PKS3_lLl512EEES9_, symObjAddr: 0x5324, symBinAddr: 0x100006350, symSize: 0xA4 }
  - { offsetInCU: 0xBFC5, offset: 0xBFC5, size: 0x8, addend: 0x0, symName: __ZNSt3__1neB7v160006ERKNS_16__deque_iteratorI8CustomerPKS1_RS2_PKS3_lLl512EEES9_, symObjAddr: 0x53C8, symBinAddr: 0x1000063F4, symSize: 0x34 }
  - { offsetInCU: 0xC002, offset: 0xC002, size: 0x8, addend: 0x0, symName: __ZNSt3__1eqB7v160006ERKNS_16__deque_iteratorI8CustomerPKS1_RS2_PKS3_lLl512EEES9_, symObjAddr: 0x53FC, symBinAddr: 0x100006428, symSize: 0x30 }
  - { offsetInCU: 0xC03F, offset: 0xC03F, size: 0x8, addend: 0x0, symName: __ZNSt3__14swapB7v160006IPP8CustomerEENS_9enable_ifIXaasr21is_move_constructibleIT_EE5valuesr18is_move_assignableIS5_EE5valueEvE4typeERS5_S8_, symObjAddr: 0x64AC, symBinAddr: 0x1000074D8, symSize: 0x3C }
  - { offsetInCU: 0xC090, offset: 0xC090, size: 0x8, addend: 0x0, symName: __ZNSt3__14moveB7v160006IPP8CustomerS3_EET0_T_S5_S4_, symObjAddr: 0x6564, symBinAddr: 0x100007590, symSize: 0x40 }
  - { offsetInCU: 0xC0EA, offset: 0xC0EA, size: 0x8, addend: 0x0, symName: __ZNSt3__16__moveB7v160006INS_17_ClassicAlgPolicyEPP8CustomerS4_S4_EENS_4pairIT0_T2_EES6_T1_S7_, symObjAddr: 0x6708, symBinAddr: 0x100007734, symSize: 0x44 }
  - { offsetInCU: 0xC156, offset: 0xC156, size: 0x8, addend: 0x0, symName: __ZNSt3__123__dispatch_copy_or_moveB7v160006INS_17_ClassicAlgPolicyENS_11__move_loopIS1_EENS_14__move_trivialEPP8CustomerS7_S7_EENS_4pairIT2_T4_EES9_T3_SA_, symObjAddr: 0x674C, symBinAddr: 0x100007778, symSize: 0x44 }
  - { offsetInCU: 0xC1D4, offset: 0xC1D4, size: 0x8, addend: 0x0, symName: __ZNSt3__121__unwrap_and_dispatchB7v160006INS_10__overloadINS_11__move_loopINS_17_ClassicAlgPolicyEEENS_14__move_trivialEEEPP8CustomerS9_S9_Li0EEENS_4pairIT0_T2_EESB_T1_SC_, symObjAddr: 0x6790, symBinAddr: 0x1000077BC, symSize: 0xB4 }
  - { offsetInCU: 0xC262, offset: 0xC262, size: 0x8, addend: 0x0, symName: __ZNSt3__114__unwrap_rangeB7v160006IPP8CustomerS3_EENS_4pairIT0_S5_EET_S7_, symObjAddr: 0x6844, symBinAddr: 0x100007870, symSize: 0x60 }
  - { offsetInCU: 0xC426, offset: 0xC426, size: 0x8, addend: 0x0, symName: __ZNSt3__113__unwrap_iterB7v160006IPP8CustomerNS_18__unwrap_iter_implIS3_Lb1EEELi0EEEDTclsrT0_8__unwrapclsr3stdE7declvalIT_EEEES7_, symObjAddr: 0x68EC, symBinAddr: 0x100007918, symSize: 0x24 }
  - { offsetInCU: 0xC46A, offset: 0xC46A, size: 0x8, addend: 0x0, symName: __ZNSt3__19make_pairB7v160006IPP8CustomerS3_EENS_4pairINS_18__unwrap_ref_decayIT_E4typeENS5_IT0_E4typeEEEOS6_OS9_, symObjAddr: 0x6910, symBinAddr: 0x10000793C, symSize: 0x38 }
  - { offsetInCU: 0xC4B9, offset: 0xC4B9, size: 0x8, addend: 0x0, symName: __ZNSt3__114__rewrap_rangeB7v160006IPP8CustomerS3_EET_S4_T0_, symObjAddr: 0x6948, symBinAddr: 0x100007974, symSize: 0x2C }
  - { offsetInCU: 0xC505, offset: 0xC505, size: 0x8, addend: 0x0, symName: __ZNSt3__113__rewrap_iterB7v160006IPP8CustomerS3_NS_18__unwrap_iter_implIS3_Lb1EEEEET_S6_T0_, symObjAddr: 0x6974, symBinAddr: 0x1000079A0, symSize: 0x3C }
  - { offsetInCU: 0xC55A, offset: 0xC55A, size: 0x8, addend: 0x0, symName: __ZNSt3__119__copy_trivial_implB7v160006IP8CustomerS2_EENS_4pairIPT_PT0_EES5_S5_S7_, symObjAddr: 0x69B0, symBinAddr: 0x1000079DC, symSize: 0x84 }
  - { offsetInCU: 0xC5C2, offset: 0xC5C2, size: 0x8, addend: 0x0, symName: __ZNSt3__19make_pairB7v160006IRPP8CustomerS3_EENS_4pairINS_18__unwrap_ref_decayIT_E4typeENS6_IT0_E4typeEEEOS7_OSA_, symObjAddr: 0x6A34, symBinAddr: 0x100007A60, symSize: 0x38 }
  - { offsetInCU: 0xC664, offset: 0xC664, size: 0x8, addend: 0x0, symName: __ZNSt3__18distanceB7v160006INS_13move_iteratorIPP8CustomerEEEENS_15iterator_traitsIT_E15difference_typeES7_S7_, symObjAddr: 0x6BC0, symBinAddr: 0x100007BEC, symSize: 0x3C }
  - { offsetInCU: 0xC6A7, offset: 0xC6A7, size: 0x8, addend: 0x0, symName: __ZNSt3__110__distanceB7v160006INS_13move_iteratorIPP8CustomerEEEENS_15iterator_traitsIT_E15difference_typeES7_S7_NS_26random_access_iterator_tagE, symObjAddr: 0x6CF8, symBinAddr: 0x100007D24, symSize: 0x30 }
  - { offsetInCU: 0xC6F4, offset: 0xC6F4, size: 0x8, addend: 0x0, symName: __ZNSt3__1miB7v160006IPP8CustomerS3_EEDTmicldtfp_4baseEcldtfp0_4baseEERKNS_13move_iteratorIT_EERKNS5_IT0_EE, symObjAddr: 0x6D28, symBinAddr: 0x100007D54, symSize: 0x48 }
  - { offsetInCU: 0xC743, offset: 0xC743, size: 0x8, addend: 0x0, symName: __ZNSt3__113move_backwardB7v160006IPP8CustomerS3_EET0_T_S5_S4_, symObjAddr: 0x6E9C, symBinAddr: 0x100007EC8, symSize: 0x40 }
  - { offsetInCU: 0xC79D, offset: 0xC79D, size: 0x8, addend: 0x0, symName: __ZNSt3__115__move_backwardB7v160006INS_17_ClassicAlgPolicyEPP8CustomerS4_S4_EENS_4pairIT0_T2_EES6_T1_S7_, symObjAddr: 0x6EDC, symBinAddr: 0x100007F08, symSize: 0x44 }
  - { offsetInCU: 0xC809, offset: 0xC809, size: 0x8, addend: 0x0, symName: __ZNSt3__123__dispatch_copy_or_moveB7v160006INS_17_ClassicAlgPolicyENS_20__move_backward_loopIS1_EENS_23__move_backward_trivialEPP8CustomerS7_S7_EENS_4pairIT2_T4_EES9_T3_SA_, symObjAddr: 0x6F20, symBinAddr: 0x100007F4C, symSize: 0x44 }
  - { offsetInCU: 0xC887, offset: 0xC887, size: 0x8, addend: 0x0, symName: __ZNSt3__121__unwrap_and_dispatchB7v160006INS_10__overloadINS_20__move_backward_loopINS_17_ClassicAlgPolicyEEENS_23__move_backward_trivialEEEPP8CustomerS9_S9_Li0EEENS_4pairIT0_T2_EESB_T1_SC_, symObjAddr: 0x6F64, symBinAddr: 0x100007F90, symSize: 0xB4 }
  - { offsetInCU: 0xC95B, offset: 0xC95B, size: 0x8, addend: 0x0, symName: __ZNSt3__128__copy_backward_trivial_implB7v160006IP8CustomerS2_EENS_4pairIPT_PT0_EES5_S5_S7_, symObjAddr: 0x7060, symBinAddr: 0x10000808C, symSize: 0x94 }
  - { offsetInCU: 0xC9C3, offset: 0xC9C3, size: 0x8, addend: 0x0, symName: __ZNSt3__19make_pairB7v160006IRPP8CustomerS4_EENS_4pairINS_18__unwrap_ref_decayIT_E4typeENS6_IT0_E4typeEEEOS7_OSA_, symObjAddr: 0x70F4, symBinAddr: 0x100008120, symSize: 0x38 }
  - { offsetInCU: 0xCA12, offset: 0xCA12, size: 0x8, addend: 0x0, symName: __ZNSt3__119__allocate_at_leastB7v160006INS_9allocatorIP8CustomerEEEENS_19__allocation_resultINS_16allocator_traitsIT_E7pointerEEERS7_m, symObjAddr: 0x72AC, symBinAddr: 0x1000082D8, symSize: 0x40 }
  - { offsetInCU: 0xCA55, offset: 0xCA55, size: 0x8, addend: 0x0, symName: __ZNSt3__1eqB7v160006ERKNS_5dequeI8CustomerNS_9allocatorIS1_EEE13__deque_rangeES7_, symObjAddr: 0x7770, symBinAddr: 0x10000879C, symSize: 0x30 }
  - { offsetInCU: 0xCA92, offset: 0xCA92, size: 0x8, addend: 0x0, symName: __ZNSt3__1eqB7v160006ERKNS_16__deque_iteratorI8CustomerPS1_RS1_PS2_lLl512EEES7_, symObjAddr: 0x77A0, symBinAddr: 0x1000087CC, symSize: 0x30 }
  - { offsetInCU: 0xCACF, offset: 0xCACF, size: 0x8, addend: 0x0, symName: __ZNSt3__119__allocate_at_leastB7v160006INS_9allocatorI7CounterEEEENS_19__allocation_resultINS_16allocator_traitsIT_E7pointerEEERS6_m, symObjAddr: 0x7DDC, symBinAddr: 0x100008E08, symSize: 0x40 }
  - { offsetInCU: 0xCB12, offset: 0xCB12, size: 0x8, addend: 0x0, symName: __ZNSt3__142__uninitialized_allocator_move_if_noexceptB7v160006INS_9allocatorI7CounterEENS_16reverse_iteratorIPS2_EES6_S6_EET2_RT_T0_T1_S7_, symObjAddr: 0x7F90, symBinAddr: 0x100008FBC, symSize: 0x12C }
  - { offsetInCU: 0xCBB2, offset: 0xCBB2, size: 0x8, addend: 0x0, symName: __ZNSt3__14swapB7v160006IP7CounterEENS_9enable_ifIXaasr21is_move_constructibleIT_EE5valuesr18is_move_assignableIS4_EE5valueEvE4typeERS4_S7_, symObjAddr: 0x8108, symBinAddr: 0x100009134, symSize: 0x3C }
  - { offsetInCU: 0xCC03, offset: 0xCC03, size: 0x8, addend: 0x0, symName: __ZNSt3__125__debug_db_invalidate_allB7v160006INS_6vectorI7CounterNS_9allocatorIS2_EEEEEEvPT_, symObjAddr: 0x81F0, symBinAddr: 0x10000921C, symSize: 0x10 }
  - { offsetInCU: 0xCC34, offset: 0xCC34, size: 0x8, addend: 0x0, symName: __ZNSt3__122__make_exception_guardB7v160006INS_29_AllocatorDestroyRangeReverseINS_9allocatorI7CounterEENS_16reverse_iteratorIPS3_EEEEEENS_28__exception_guard_exceptionsIT_EESA_, symObjAddr: 0x8200, symBinAddr: 0x10000922C, symSize: 0x4C }
  - { offsetInCU: 0xCC6A, offset: 0xCC6A, size: 0x8, addend: 0x0, symName: __ZNSt3__1neB7v160006IP7CounterS2_EEbRKNS_16reverse_iteratorIT_EERKNS3_IT0_EE, symObjAddr: 0x8290, symBinAddr: 0x1000092BC, symSize: 0x48 }
  - { offsetInCU: 0xCCB6, offset: 0xCCB6, size: 0x8, addend: 0x0, symName: __ZNSt3__112__to_addressB7v160006INS_16reverse_iteratorIP7CounterEEvEENS_5decayIDTclsr19__to_address_helperIT_EE6__callclsr3stdE7declvalIRKS6_EEEEE4typeES8_, symObjAddr: 0x830C, symBinAddr: 0x100009338, symSize: 0x24 }
  - { offsetInCU: 0xCD15, offset: 0xCD15, size: 0x8, addend: 0x0, symName: __ZNSt3__119__allocator_destroyB7v160006INS_9allocatorI7CounterEENS_16reverse_iteratorINS4_IPS2_EEEES7_EEvRT_T0_T1_, symObjAddr: 0x87C8, symBinAddr: 0x1000097F4, symSize: 0x70 }
  - { offsetInCU: 0xCD7A, offset: 0xCD7A, size: 0x8, addend: 0x0, symName: __ZNSt3__1neB7v160006INS_16reverse_iteratorIP7CounterEES4_EEbRKNS1_IT_EERKNS1_IT0_EE, symObjAddr: 0x8874, symBinAddr: 0x1000098A0, symSize: 0x60 }
  - { offsetInCU: 0xCDC6, offset: 0xCDC6, size: 0x8, addend: 0x0, symName: __ZNSt3__112__to_addressB7v160006INS_16reverse_iteratorINS1_IP7CounterEEEEvEENS_5decayIDTclsr19__to_address_helperIT_EE6__callclsr3stdE7declvalIRKS7_EEEEE4typeES9_, symObjAddr: 0x88D4, symBinAddr: 0x100009900, symSize: 0x24 }
  - { offsetInCU: 0xCE25, offset: 0xCE25, size: 0x8, addend: 0x0, symName: __ZNSt3__116__pad_and_outputB7v160006IcNS_11char_traitsIcEEEENS_19ostreambuf_iteratorIT_T0_EES6_PKS4_S8_S8_RNS_8ios_baseES4_, symObjAddr: 0x8E78, symBinAddr: 0x100009EA4, symSize: 0x240 }
  - { offsetInCU: 0xCEF4, offset: 0xCEF4, size: 0x8, addend: 0x0, symName: __ZNSt3__119__debug_db_insert_cB7v160006INS_12basic_stringIcNS_11char_traitsIcEENS_9allocatorIcEEEEEEvPT_, symObjAddr: 0x932C, symBinAddr: 0x10000A358, symSize: 0x10 }
  - { offsetInCU: 0xCF25, offset: 0xCF25, size: 0x8, addend: 0x0, symName: __ZNSt3__112__to_addressB7v160006IKcEEPT_S3_, symObjAddr: 0x93F8, symBinAddr: 0x10000A424, symSize: 0x14 }
  - { offsetInCU: 0xCF8D, offset: 0xCF8D, size: 0x8, addend: 0x0, symName: __ZNSt3__19use_facetB7v160006INS_5ctypeIcEEEERKT_RKNS_6localeE, symObjAddr: 0x9678, symBinAddr: 0x10000A6A4, symSize: 0x2C }
  - { offsetInCU: 0xD45C, offset: 0xD45C, size: 0x8, addend: 0x0, symName: __ZNSt3__118__constexpr_strlenB7v160006EPKc, symObjAddr: 0x9710, symBinAddr: 0x10000A73C, symSize: 0x24 }
  - { offsetInCU: 0xDC22, offset: 0xDC22, size: 0x8, addend: 0x0, symName: __ZSt28__throw_bad_array_new_lengthB7v160006v, symObjAddr: 0x339C, symBinAddr: 0x1000043C8, symSize: 0x34 }
  - { offsetInCU: 0xDE7E, offset: 0xDE7E, size: 0x8, addend: 0x0, symName: _counters, symObjAddr: 0x54BB0, symBinAddr: 0x100010018, symSize: 0x0 }
  - { offsetInCU: 0xE22B, offset: 0xE22B, size: 0x8, addend: 0x0, symName: _leaveCustomers, symObjAddr: 0x54BC8, symBinAddr: 0x100010030, symSize: 0x0 }
  - { offsetInCU: 0xE240, offset: 0xE240, size: 0x8, addend: 0x0, symName: _N, symObjAddr: 0x54BE0, symBinAddr: 0x100010048, symSize: 0x0 }
  - { offsetInCU: 0xE255, offset: 0xE255, size: 0x8, addend: 0x0, symName: _k, symObjAddr: 0x54BE4, symBinAddr: 0x10001004C, symSize: 0x0 }
  - { offsetInCU: 0xE26A, offset: 0xE26A, size: 0x8, addend: 0x0, symName: _totalCustomer, symObjAddr: 0x54BE8, symBinAddr: 0x100010050, symSize: 0x0 }
  - { offsetInCU: 0xE56C, offset: 0xE56C, size: 0x8, addend: 0x0, symName: __ZNSt3__16vectorI8CustomerNS_9allocatorIS1_EEE26__swap_out_circular_bufferERNS_14__split_bufferIS1_RS3_EE, symObjAddr: 0x2CB0, symBinAddr: 0x100003CDC, symSize: 0x118 }
  - { offsetInCU: 0xE680, offset: 0xE680, size: 0x8, addend: 0x0, symName: __ZNSt3__16vectorI7CounterNS_9allocatorIS1_EEE26__swap_out_circular_bufferERNS_14__split_bufferIS1_RS3_EE, symObjAddr: 0x7A74, symBinAddr: 0x100008AA0, symSize: 0x118 }
  - { offsetInCU: 0x10DA4, offset: 0x10DA4, size: 0x8, addend: 0x0, symName: __ZNSt3__16vectorI8CustomerNS_9allocatorIS1_EEEC1B7v160006Ev, symObjAddr: 0x0, symBinAddr: 0x10000102C, symSize: 0x2C }
  - { offsetInCU: 0x10DCE, offset: 0x10DCE, size: 0x8, addend: 0x0, symName: __ZNSt3__16vectorI8CustomerNS_9allocatorIS1_EEED1B7v160006Ev, symObjAddr: 0x2C, symBinAddr: 0x100001058, symSize: 0x2C }
  - { offsetInCU: 0x10DF8, offset: 0x10DF8, size: 0x8, addend: 0x0, symName: __ZNSt3__16vectorI7CounterNS_9allocatorIS1_EEEC1B7v160006Ev, symObjAddr: 0x58, symBinAddr: 0x100001084, symSize: 0x2C }
  - { offsetInCU: 0x10E22, offset: 0x10E22, size: 0x8, addend: 0x0, symName: __ZNSt3__16vectorI7CounterNS_9allocatorIS1_EEED1B7v160006Ev, symObjAddr: 0x84, symBinAddr: 0x1000010B0, symSize: 0x2C }
  - { offsetInCU: 0x10E4C, offset: 0x10E4C, size: 0x8, addend: 0x0, symName: __Z5inputv, symObjAddr: 0xB0, symBinAddr: 0x1000010DC, symSize: 0x124 }
  - { offsetInCU: 0x10EB4, offset: 0x10EB4, size: 0x8, addend: 0x0, symName: __ZN8CustomerC1Eii, symObjAddr: 0x1D4, symBinAddr: 0x100001200, symSize: 0x3C }
  - { offsetInCU: 0x10EFA, offset: 0x10EFA, size: 0x8, addend: 0x0, symName: __ZNSt3__16vectorI8CustomerNS_9allocatorIS1_EEE9push_backB7v160006ERKS1_, symObjAddr: 0x210, symBinAddr: 0x10000123C, symSize: 0x6C }
  - { offsetInCU: 0x10F35, offset: 0x10F35, size: 0x8, addend: 0x0, symName: __ZN7CounterC1Ev, symObjAddr: 0x27C, symBinAddr: 0x1000012A8, symSize: 0x2C }
  - { offsetInCU: 0x10F61, offset: 0x10F61, size: 0x8, addend: 0x0, symName: __ZNSt3__16vectorI7CounterNS_9allocatorIS1_EEE9push_backB7v160006ERKS1_, symObjAddr: 0x2A8, symBinAddr: 0x1000012D4, symSize: 0x6C }
  - { offsetInCU: 0x10F97, offset: 0x10F97, size: 0x8, addend: 0x0, symName: __ZN7CounterD1Ev, symObjAddr: 0x314, symBinAddr: 0x100001340, symSize: 0x2C }
  - { offsetInCU: 0x10FC3, offset: 0x10FC3, size: 0x8, addend: 0x0, symName: __Z13printCustomerv, symObjAddr: 0x340, symBinAddr: 0x10000136C, symSize: 0xC0 }
  - { offsetInCU: 0x11031, offset: 0x11031, size: 0x8, addend: 0x0, symName: __ZNSt3__16vectorI8CustomerNS_9allocatorIS1_EEE5beginB7v160006Ev, symObjAddr: 0x448, symBinAddr: 0x100001474, symSize: 0x30 }
  - { offsetInCU: 0x11058, offset: 0x11058, size: 0x8, addend: 0x0, symName: __ZNSt3__16vectorI8CustomerNS_9allocatorIS1_EEE3endB7v160006Ev, symObjAddr: 0x478, symBinAddr: 0x1000014A4, symSize: 0x30 }
  - { offsetInCU: 0x1107F, offset: 0x1107F, size: 0x8, addend: 0x0, symName: __ZNKSt3__111__wrap_iterIP8CustomerEdeB7v160006Ev, symObjAddr: 0x4DC, symBinAddr: 0x100001508, symSize: 0x18 }
  - { offsetInCU: 0x110A5, offset: 0x110A5, size: 0x8, addend: 0x0, symName: __ZNSt3__113basic_ostreamIcNS_11char_traitsIcEEElsB7v160006EPFRS3_S4_E, symObjAddr: 0x4F4, symBinAddr: 0x100001520, symSize: 0x2C }
  - { offsetInCU: 0x110D9, offset: 0x110D9, size: 0x8, addend: 0x0, symName: __ZNSt3__111__wrap_iterIP8CustomerEppB7v160006Ev, symObjAddr: 0x578, symBinAddr: 0x1000015A4, symSize: 0x20 }
  - { offsetInCU: 0x110FE, offset: 0x110FE, size: 0x8, addend: 0x0, symName: __Z14pickMinCounterv, symObjAddr: 0x598, symBinAddr: 0x1000015C4, symSize: 0xBC }
  - { offsetInCU: 0x11156, offset: 0x11156, size: 0x8, addend: 0x0, symName: __ZNKSt3__16vectorI7CounterNS_9allocatorIS1_EEE4sizeB7v160006Ev, symObjAddr: 0x654, symBinAddr: 0x100001680, symSize: 0x28 }
  - { offsetInCU: 0x1117C, offset: 0x1117C, size: 0x8, addend: 0x0, symName: __ZNSt3__16vectorI7CounterNS_9allocatorIS1_EEEixB7v160006Em, symObjAddr: 0x67C, symBinAddr: 0x1000016A8, symSize: 0x24 }
  - { offsetInCU: 0x111B3, offset: 0x111B3, size: 0x8, addend: 0x0, symName: __Z12enterCounterv, symObjAddr: 0x6A0, symBinAddr: 0x1000016CC, symSize: 0xC8 }
  - { offsetInCU: 0x1122F, offset: 0x1122F, size: 0x8, addend: 0x0, symName: __ZNSt3__15dequeI8CustomerNS_9allocatorIS1_EEE9push_backERKS1_, symObjAddr: 0x768, symBinAddr: 0x100001794, symSize: 0xA0 }
  - { offsetInCU: 0x11274, offset: 0x11274, size: 0x8, addend: 0x0, symName: __Z12printCounterv, symObjAddr: 0x808, symBinAddr: 0x100001834, symSize: 0x140 }
  - { offsetInCU: 0x11335, offset: 0x11335, size: 0x8, addend: 0x0, symName: __ZNSt3__16vectorI7CounterNS_9allocatorIS1_EEE5beginB7v160006Ev, symObjAddr: 0x948, symBinAddr: 0x100001974, symSize: 0x30 }
  - { offsetInCU: 0x1135C, offset: 0x1135C, size: 0x8, addend: 0x0, symName: __ZNSt3__16vectorI7CounterNS_9allocatorIS1_EEE3endB7v160006Ev, symObjAddr: 0x978, symBinAddr: 0x1000019A4, symSize: 0x30 }
  - { offsetInCU: 0x11383, offset: 0x11383, size: 0x8, addend: 0x0, symName: __ZNKSt3__111__wrap_iterIP7CounterEdeB7v160006Ev, symObjAddr: 0x9DC, symBinAddr: 0x100001A08, symSize: 0x18 }
  - { offsetInCU: 0x113A9, offset: 0x113A9, size: 0x8, addend: 0x0, symName: __ZNSt3__15dequeI8CustomerNS_9allocatorIS1_EEE5beginB7v160006Ev, symObjAddr: 0x9F4, symBinAddr: 0x100001A20, symSize: 0xA8 }
  - { offsetInCU: 0x113DE, offset: 0x113DE, size: 0x8, addend: 0x0, symName: __ZNSt3__15dequeI8CustomerNS_9allocatorIS1_EEE3endB7v160006Ev, symObjAddr: 0xA9C, symBinAddr: 0x100001AC8, symSize: 0xBC }
  - { offsetInCU: 0x11422, offset: 0x11422, size: 0x8, addend: 0x0, symName: __ZNKSt3__116__deque_iteratorI8CustomerPS1_RS1_PS2_lLl512EEdeB7v160006Ev, symObjAddr: 0xB8C, symBinAddr: 0x100001BB8, symSize: 0x18 }
  - { offsetInCU: 0x11448, offset: 0x11448, size: 0x8, addend: 0x0, symName: __ZNSt3__116__deque_iteratorI8CustomerPS1_RS1_PS2_lLl512EEppB7v160006Ev, symObjAddr: 0xBA4, symBinAddr: 0x100001BD0, symSize: 0x70 }
  - { offsetInCU: 0x1146E, offset: 0x1146E, size: 0x8, addend: 0x0, symName: __ZNSt3__111__wrap_iterIP7CounterEppB7v160006Ev, symObjAddr: 0xC14, symBinAddr: 0x100001C40, symSize: 0x20 }
  - { offsetInCU: 0x11494, offset: 0x11494, size: 0x8, addend: 0x0, symName: __Z12leaveCounterv, symObjAddr: 0xC34, symBinAddr: 0x100001C60, symSize: 0x134 }
  - { offsetInCU: 0x114CC, offset: 0x114CC, size: 0x8, addend: 0x0, symName: __ZNKSt3__16vectorI8CustomerNS_9allocatorIS1_EEE4sizeB7v160006Ev, symObjAddr: 0xD68, symBinAddr: 0x100001D94, symSize: 0x28 }
  - { offsetInCU: 0x114F2, offset: 0x114F2, size: 0x8, addend: 0x0, symName: __ZNSt3__16vectorI7CounterNS_9allocatorIS1_EEE6rbeginB7v160006Ev, symObjAddr: 0xD90, symBinAddr: 0x100001DBC, symSize: 0x44 }
  - { offsetInCU: 0x11518, offset: 0x11518, size: 0x8, addend: 0x0, symName: __ZNSt3__16vectorI7CounterNS_9allocatorIS1_EEE4rendB7v160006Ev, symObjAddr: 0xE28, symBinAddr: 0x100001E54, symSize: 0x44 }
  - { offsetInCU: 0x1153E, offset: 0x1153E, size: 0x8, addend: 0x0, symName: __ZNKSt3__116reverse_iteratorINS_11__wrap_iterIP7CounterEEEdeB7v160006Ev, symObjAddr: 0xE6C, symBinAddr: 0x100001E98, symSize: 0x34 }
  - { offsetInCU: 0x11572, offset: 0x11572, size: 0x8, addend: 0x0, symName: __ZNSt3__15dequeI8CustomerNS_9allocatorIS1_EEE5frontEv, symObjAddr: 0xEA0, symBinAddr: 0x100001ECC, symSize: 0x50 }
  - { offsetInCU: 0x11599, offset: 0x11599, size: 0x8, addend: 0x0, symName: __ZNSt3__15dequeI8CustomerNS_9allocatorIS1_EEE9pop_frontEv, symObjAddr: 0xEF0, symBinAddr: 0x100001F1C, symSize: 0xAC }
  - { offsetInCU: 0x115CF, offset: 0x115CF, size: 0x8, addend: 0x0, symName: __ZNSt3__116reverse_iteratorINS_11__wrap_iterIP7CounterEEEppB7v160006Ev, symObjAddr: 0xF9C, symBinAddr: 0x100001FC8, symSize: 0x30 }
  - { offsetInCU: 0x115F5, offset: 0x115F5, size: 0x8, addend: 0x0, symName: __Z18printLeaveCustomerv, symObjAddr: 0xFCC, symBinAddr: 0x100001FF8, symSize: 0xAC }
  - { offsetInCU: 0x11663, offset: 0x11663, size: 0x8, addend: 0x0, symName: _main, symObjAddr: 0x1078, symBinAddr: 0x1000020A4, symSize: 0x3C }
  - { offsetInCU: 0x1167D, offset: 0x1167D, size: 0x8, addend: 0x0, symName: __ZN8CustomerC2Eii, symObjAddr: 0x10B4, symBinAddr: 0x1000020E0, symSize: 0x2C }
  - { offsetInCU: 0x116C3, offset: 0x116C3, size: 0x8, addend: 0x0, symName: __ZN7CounterC2Ev, symObjAddr: 0x10E0, symBinAddr: 0x10000210C, symSize: 0x38 }
  - { offsetInCU: 0x116EF, offset: 0x116EF, size: 0x8, addend: 0x0, symName: __ZNSt3__15dequeI8CustomerNS_9allocatorIS1_EEEC1B7v160006Ev, symObjAddr: 0x1118, symBinAddr: 0x100002144, symSize: 0x2C }
  - { offsetInCU: 0x11719, offset: 0x11719, size: 0x8, addend: 0x0, symName: __ZNSt3__15dequeI8CustomerNS_9allocatorIS1_EEEC2B7v160006Ev, symObjAddr: 0x1144, symBinAddr: 0x100002170, symSize: 0x50 }
  - { offsetInCU: 0x11743, offset: 0x11743, size: 0x8, addend: 0x0, symName: __ZNSt3__114__split_bufferIP8CustomerNS_9allocatorIS2_EEEC1Ev, symObjAddr: 0x1194, symBinAddr: 0x1000021C0, symSize: 0x2C }
  - { offsetInCU: 0x11779, offset: 0x11779, size: 0x8, addend: 0x0, symName: __ZNSt3__117__compressed_pairImNS_9allocatorI8CustomerEEEC1B7v160006IiNS_18__default_init_tagEEEOT_OT0_, symObjAddr: 0x11C0, symBinAddr: 0x1000021EC, symSize: 0x3C }
  - { offsetInCU: 0x117D1, offset: 0x117D1, size: 0x8, addend: 0x0, symName: __ZNSt3__114__split_bufferIP8CustomerNS_9allocatorIS2_EEEC2Ev, symObjAddr: 0x1208, symBinAddr: 0x100002234, symSize: 0x50 }
  - { offsetInCU: 0x11802, offset: 0x11802, size: 0x8, addend: 0x0, symName: __ZNSt3__117__compressed_pairIPP8CustomerNS_9allocatorIS2_EEEC1B7v160006IDnNS_18__default_init_tagEEEOT_OT0_, symObjAddr: 0x1258, symBinAddr: 0x100002284, symSize: 0x3C }
  - { offsetInCU: 0x1185A, offset: 0x1185A, size: 0x8, addend: 0x0, symName: __ZNSt3__117__compressed_pairIPP8CustomerNS_9allocatorIS2_EEEC2B7v160006IDnNS_18__default_init_tagEEEOT_OT0_, symObjAddr: 0x1294, symBinAddr: 0x1000022C0, symSize: 0x40 }
  - { offsetInCU: 0x118B2, offset: 0x118B2, size: 0x8, addend: 0x0, symName: __ZNSt3__122__compressed_pair_elemIPP8CustomerLi0ELb0EEC2B7v160006IDnvEEOT_, symObjAddr: 0x12D4, symBinAddr: 0x100002300, symSize: 0x1C }
  - { offsetInCU: 0x118F4, offset: 0x118F4, size: 0x8, addend: 0x0, symName: __ZNSt3__122__compressed_pair_elemINS_9allocatorIP8CustomerEELi1ELb1EEC2B7v160006ENS_18__default_init_tagE, symObjAddr: 0x12F0, symBinAddr: 0x10000231C, symSize: 0x2C }
  - { offsetInCU: 0x11928, offset: 0x11928, size: 0x8, addend: 0x0, symName: __ZNSt3__19allocatorIP8CustomerEC2B7v160006Ev, symObjAddr: 0x131C, symBinAddr: 0x100002348, symSize: 0x2C }
  - { offsetInCU: 0x11952, offset: 0x11952, size: 0x8, addend: 0x0, symName: __ZNSt3__116__non_trivial_ifILb1ENS_9allocatorIP8CustomerEEEC2B7v160006Ev, symObjAddr: 0x1348, symBinAddr: 0x100002374, symSize: 0x14 }
  - { offsetInCU: 0x1197C, offset: 0x1197C, size: 0x8, addend: 0x0, symName: __ZNSt3__117__compressed_pairImNS_9allocatorI8CustomerEEEC2B7v160006IiNS_18__default_init_tagEEEOT_OT0_, symObjAddr: 0x135C, symBinAddr: 0x100002388, symSize: 0x40 }
  - { offsetInCU: 0x119D4, offset: 0x119D4, size: 0x8, addend: 0x0, symName: __ZNSt3__122__compressed_pair_elemImLi0ELb0EEC2B7v160006IivEEOT_, symObjAddr: 0x139C, symBinAddr: 0x1000023C8, symSize: 0x24 }
  - { offsetInCU: 0x11A16, offset: 0x11A16, size: 0x8, addend: 0x0, symName: __ZNSt3__122__compressed_pair_elemINS_9allocatorI8CustomerEELi1ELb1EEC2B7v160006ENS_18__default_init_tagE, symObjAddr: 0x13C0, symBinAddr: 0x1000023EC, symSize: 0x2C }
  - { offsetInCU: 0x11A4A, offset: 0x11A4A, size: 0x8, addend: 0x0, symName: __ZNSt3__19allocatorI8CustomerEC2B7v160006Ev, symObjAddr: 0x13EC, symBinAddr: 0x100002418, symSize: 0x2C }
  - { offsetInCU: 0x11A74, offset: 0x11A74, size: 0x8, addend: 0x0, symName: __ZNSt3__116__non_trivial_ifILb1ENS_9allocatorI8CustomerEEEC2B7v160006Ev, symObjAddr: 0x1418, symBinAddr: 0x100002444, symSize: 0x14 }
  - { offsetInCU: 0x11A9E, offset: 0x11A9E, size: 0x8, addend: 0x0, symName: __ZN7CounterD2Ev, symObjAddr: 0x142C, symBinAddr: 0x100002458, symSize: 0x30 }
  - { offsetInCU: 0x11ACA, offset: 0x11ACA, size: 0x8, addend: 0x0, symName: __ZNSt3__15dequeI8CustomerNS_9allocatorIS1_EEED1B7v160006Ev, symObjAddr: 0x145C, symBinAddr: 0x100002488, symSize: 0x2C }
  - { offsetInCU: 0x11AF4, offset: 0x11AF4, size: 0x8, addend: 0x0, symName: __ZNSt3__15dequeI8CustomerNS_9allocatorIS1_EEED2B7v160006Ev, symObjAddr: 0x1488, symBinAddr: 0x1000024B4, symSize: 0x9C }
  - { offsetInCU: 0x11B4B, offset: 0x11B4B, size: 0x8, addend: 0x0, symName: __ZNSt3__15dequeI8CustomerNS_9allocatorIS1_EEE5clearEv, symObjAddr: 0x1524, symBinAddr: 0x100002550, symSize: 0x180 }
  - { offsetInCU: 0x11BA5, offset: 0x11BA5, size: 0x8, addend: 0x0, symName: __ZNSt3__114__split_bufferIP8CustomerNS_9allocatorIS2_EEE5beginB7v160006Ev, symObjAddr: 0x16A4, symBinAddr: 0x1000026D0, symSize: 0x18 }
  - { offsetInCU: 0x11BCB, offset: 0x11BCB, size: 0x8, addend: 0x0, symName: __ZNSt3__114__split_bufferIP8CustomerNS_9allocatorIS2_EEE3endB7v160006Ev, symObjAddr: 0x16BC, symBinAddr: 0x1000026E8, symSize: 0x18 }
  - { offsetInCU: 0x11BF1, offset: 0x11BF1, size: 0x8, addend: 0x0, symName: __ZNSt3__116allocator_traitsINS_9allocatorI8CustomerEEE10deallocateB7v160006ERS3_PS2_m, symObjAddr: 0x16D4, symBinAddr: 0x100002700, symSize: 0x34 }
  - { offsetInCU: 0x11C33, offset: 0x11C33, size: 0x8, addend: 0x0, symName: __ZNSt3__15dequeI8CustomerNS_9allocatorIS1_EEE7__allocB7v160006Ev, symObjAddr: 0x1708, symBinAddr: 0x100002734, symSize: 0x28 }
  - { offsetInCU: 0x11C59, offset: 0x11C59, size: 0x8, addend: 0x0, symName: __ZNSt3__114__split_bufferIP8CustomerNS_9allocatorIS2_EEED1Ev, symObjAddr: 0x1730, symBinAddr: 0x10000275C, symSize: 0x2C }
  - { offsetInCU: 0x11C85, offset: 0x11C85, size: 0x8, addend: 0x0, symName: __ZNSt3__116allocator_traitsINS_9allocatorI8CustomerEEE7destroyB7v160006IS2_vEEvRS3_PT_, symObjAddr: 0x175C, symBinAddr: 0x100002788, symSize: 0x2C }
  - { offsetInCU: 0x11CC2, offset: 0x11CC2, size: 0x8, addend: 0x0, symName: __ZNSt3__15dequeI8CustomerNS_9allocatorIS1_EEE6__sizeB7v160006Ev, symObjAddr: 0x1788, symBinAddr: 0x1000027B4, symSize: 0x28 }
  - { offsetInCU: 0x11CE8, offset: 0x11CE8, size: 0x8, addend: 0x0, symName: __ZNKSt3__114__split_bufferIP8CustomerNS_9allocatorIS2_EEE4sizeB7v160006Ev, symObjAddr: 0x17B0, symBinAddr: 0x1000027DC, symSize: 0x28 }
  - { offsetInCU: 0x11D0E, offset: 0x11D0E, size: 0x8, addend: 0x0, symName: __ZNSt3__114__split_bufferIP8CustomerNS_9allocatorIS2_EEE5frontB7v160006Ev, symObjAddr: 0x17D8, symBinAddr: 0x100002804, symSize: 0x18 }
  - { offsetInCU: 0x11D34, offset: 0x11D34, size: 0x8, addend: 0x0, symName: __ZNSt3__114__split_bufferIP8CustomerNS_9allocatorIS2_EEE9pop_frontB7v160006Ev, symObjAddr: 0x17F0, symBinAddr: 0x10000281C, symSize: 0x2C }
  - { offsetInCU: 0x11D5A, offset: 0x11D5A, size: 0x8, addend: 0x0, symName: __ZNSt3__19allocatorI8CustomerE7destroyB7v160006EPS1_, symObjAddr: 0x181C, symBinAddr: 0x100002848, symSize: 0x14 }
  - { offsetInCU: 0x11D8E, offset: 0x11D8E, size: 0x8, addend: 0x0, symName: __ZNSt3__117__compressed_pairImNS_9allocatorI8CustomerEEE5firstB7v160006Ev, symObjAddr: 0x1830, symBinAddr: 0x10000285C, symSize: 0x24 }
  - { offsetInCU: 0x11DB4, offset: 0x11DB4, size: 0x8, addend: 0x0, symName: __ZNSt3__122__compressed_pair_elemImLi0ELb0EE5__getB7v160006Ev, symObjAddr: 0x1854, symBinAddr: 0x100002880, symSize: 0x14 }
  - { offsetInCU: 0x11DDA, offset: 0x11DDA, size: 0x8, addend: 0x0, symName: __ZNSt3__114__split_bufferIP8CustomerNS_9allocatorIS2_EEE19__destruct_at_beginB7v160006EPS2_, symObjAddr: 0x1868, symBinAddr: 0x100002894, symSize: 0x2C }
  - { offsetInCU: 0x11E0E, offset: 0x11E0E, size: 0x8, addend: 0x0, symName: __ZNSt3__114__split_bufferIP8CustomerNS_9allocatorIS2_EEE19__destruct_at_beginEPS2_NS_17integral_constantIbLb1EEE, symObjAddr: 0x1894, symBinAddr: 0x1000028C0, symSize: 0x20 }
  - { offsetInCU: 0x11E4E, offset: 0x11E4E, size: 0x8, addend: 0x0, symName: __ZNSt3__19allocatorI8CustomerE10deallocateB7v160006EPS1_m, symObjAddr: 0x18B4, symBinAddr: 0x1000028E0, symSize: 0x40 }
  - { offsetInCU: 0x11E90, offset: 0x11E90, size: 0x8, addend: 0x0, symName: __ZNSt3__117__compressed_pairImNS_9allocatorI8CustomerEEE6secondB7v160006Ev, symObjAddr: 0x1970, symBinAddr: 0x10000299C, symSize: 0x24 }
  - { offsetInCU: 0x11EB6, offset: 0x11EB6, size: 0x8, addend: 0x0, symName: __ZNSt3__122__compressed_pair_elemINS_9allocatorI8CustomerEELi1ELb1EE5__getB7v160006Ev, symObjAddr: 0x1994, symBinAddr: 0x1000029C0, symSize: 0x14 }
  - { offsetInCU: 0x11EDC, offset: 0x11EDC, size: 0x8, addend: 0x0, symName: __ZNSt3__114__split_bufferIP8CustomerNS_9allocatorIS2_EEED2Ev, symObjAddr: 0x19A8, symBinAddr: 0x1000029D4, symSize: 0x8C }
  - { offsetInCU: 0x11F08, offset: 0x11F08, size: 0x8, addend: 0x0, symName: __ZNSt3__114__split_bufferIP8CustomerNS_9allocatorIS2_EEE5clearB7v160006Ev, symObjAddr: 0x1A34, symBinAddr: 0x100002A60, symSize: 0x28 }
  - { offsetInCU: 0x11F2E, offset: 0x11F2E, size: 0x8, addend: 0x0, symName: __ZNSt3__116allocator_traitsINS_9allocatorIP8CustomerEEE10deallocateB7v160006ERS4_PS3_m, symObjAddr: 0x1A5C, symBinAddr: 0x100002A88, symSize: 0x34 }
  - { offsetInCU: 0x11F70, offset: 0x11F70, size: 0x8, addend: 0x0, symName: __ZNSt3__114__split_bufferIP8CustomerNS_9allocatorIS2_EEE7__allocB7v160006Ev, symObjAddr: 0x1A90, symBinAddr: 0x100002ABC, symSize: 0x28 }
  - { offsetInCU: 0x11F96, offset: 0x11F96, size: 0x8, addend: 0x0, symName: __ZNKSt3__114__split_bufferIP8CustomerNS_9allocatorIS2_EEE8capacityB7v160006Ev, symObjAddr: 0x1AB8, symBinAddr: 0x100002AE4, symSize: 0x40 }
  - { offsetInCU: 0x11FBC, offset: 0x11FBC, size: 0x8, addend: 0x0, symName: __ZNSt3__114__split_bufferIP8CustomerNS_9allocatorIS2_EEE17__destruct_at_endB7v160006EPS2_, symObjAddr: 0x1AF8, symBinAddr: 0x100002B24, symSize: 0x2C }
  - { offsetInCU: 0x11FF0, offset: 0x11FF0, size: 0x8, addend: 0x0, symName: __ZNSt3__114__split_bufferIP8CustomerNS_9allocatorIS2_EEE17__destruct_at_endB7v160006EPS2_NS_17integral_constantIbLb0EEE, symObjAddr: 0x1B24, symBinAddr: 0x100002B50, symSize: 0x80 }
  - { offsetInCU: 0x1202F, offset: 0x1202F, size: 0x8, addend: 0x0, symName: __ZNSt3__116allocator_traitsINS_9allocatorIP8CustomerEEE7destroyB7v160006IS3_vEEvRS4_PT_, symObjAddr: 0x1BA4, symBinAddr: 0x100002BD0, symSize: 0x2C }
  - { offsetInCU: 0x1206C, offset: 0x1206C, size: 0x8, addend: 0x0, symName: __ZNSt3__19allocatorIP8CustomerE7destroyB7v160006EPS2_, symObjAddr: 0x1BE4, symBinAddr: 0x100002C10, symSize: 0x14 }
  - { offsetInCU: 0x120A0, offset: 0x120A0, size: 0x8, addend: 0x0, symName: __ZNSt3__19allocatorIP8CustomerE10deallocateB7v160006EPS2_m, symObjAddr: 0x1BF8, symBinAddr: 0x100002C24, symSize: 0x40 }
  - { offsetInCU: 0x120E2, offset: 0x120E2, size: 0x8, addend: 0x0, symName: __ZNSt3__117__compressed_pairIPP8CustomerNS_9allocatorIS2_EEE6secondB7v160006Ev, symObjAddr: 0x1C38, symBinAddr: 0x100002C64, symSize: 0x24 }
  - { offsetInCU: 0x12108, offset: 0x12108, size: 0x8, addend: 0x0, symName: __ZNSt3__122__compressed_pair_elemINS_9allocatorIP8CustomerEELi1ELb1EE5__getB7v160006Ev, symObjAddr: 0x1C5C, symBinAddr: 0x100002C88, symSize: 0x14 }
  - { offsetInCU: 0x1212E, offset: 0x1212E, size: 0x8, addend: 0x0, symName: __ZNKSt3__114__split_bufferIP8CustomerNS_9allocatorIS2_EEE9__end_capB7v160006Ev, symObjAddr: 0x1C70, symBinAddr: 0x100002C9C, symSize: 0x28 }
  - { offsetInCU: 0x12154, offset: 0x12154, size: 0x8, addend: 0x0, symName: __ZNKSt3__117__compressed_pairIPP8CustomerNS_9allocatorIS2_EEE5firstB7v160006Ev, symObjAddr: 0x1C98, symBinAddr: 0x100002CC4, symSize: 0x24 }
  - { offsetInCU: 0x1217A, offset: 0x1217A, size: 0x8, addend: 0x0, symName: __ZNKSt3__122__compressed_pair_elemIPP8CustomerLi0ELb0EE5__getB7v160006Ev, symObjAddr: 0x1CBC, symBinAddr: 0x100002CE8, symSize: 0x14 }
  - { offsetInCU: 0x121A0, offset: 0x121A0, size: 0x8, addend: 0x0, symName: __ZNKSt3__111__wrap_iterIP8CustomerE4baseB7v160006Ev, symObjAddr: 0x1D18, symBinAddr: 0x100002D44, symSize: 0x18 }
  - { offsetInCU: 0x121C6, offset: 0x121C6, size: 0x8, addend: 0x0, symName: __ZNKSt3__111__wrap_iterIP7CounterE4baseB7v160006Ev, symObjAddr: 0x1D78, symBinAddr: 0x100002DA4, symSize: 0x18 }
  - { offsetInCU: 0x121EC, offset: 0x121EC, size: 0x8, addend: 0x0, symName: __ZNSt3__16vectorI8CustomerNS_9allocatorIS1_EEEC2B7v160006Ev, symObjAddr: 0x1D90, symBinAddr: 0x100002DBC, symSize: 0x58 }
  - { offsetInCU: 0x12216, offset: 0x12216, size: 0x8, addend: 0x0, symName: __ZNSt3__117__compressed_pairIP8CustomerNS_9allocatorIS1_EEEC1B7v160006IDnNS_18__default_init_tagEEEOT_OT0_, symObjAddr: 0x1DE8, symBinAddr: 0x100002E14, symSize: 0x3C }
  - { offsetInCU: 0x1226E, offset: 0x1226E, size: 0x8, addend: 0x0, symName: __ZNSt3__117__compressed_pairIP8CustomerNS_9allocatorIS1_EEEC2B7v160006IDnNS_18__default_init_tagEEEOT_OT0_, symObjAddr: 0x1E34, symBinAddr: 0x100002E60, symSize: 0x40 }
  - { offsetInCU: 0x122C6, offset: 0x122C6, size: 0x8, addend: 0x0, symName: __ZNSt3__122__compressed_pair_elemIP8CustomerLi0ELb0EEC2B7v160006IDnvEEOT_, symObjAddr: 0x1E74, symBinAddr: 0x100002EA0, symSize: 0x1C }
  - { offsetInCU: 0x12308, offset: 0x12308, size: 0x8, addend: 0x0, symName: __ZNSt3__16vectorI8CustomerNS_9allocatorIS1_EEED2B7v160006Ev, symObjAddr: 0x1E90, symBinAddr: 0x100002EBC, symSize: 0x44 }
  - { offsetInCU: 0x12332, offset: 0x12332, size: 0x8, addend: 0x0, symName: __ZNSt3__16vectorI8CustomerNS_9allocatorIS1_EEE16__destroy_vectorC1ERS4_, symObjAddr: 0x1ED4, symBinAddr: 0x100002F00, symSize: 0x34 }
  - { offsetInCU: 0x1236B, offset: 0x1236B, size: 0x8, addend: 0x0, symName: __ZNSt3__16vectorI8CustomerNS_9allocatorIS1_EEE16__destroy_vectorclB7v160006Ev, symObjAddr: 0x1F08, symBinAddr: 0x100002F34, symSize: 0x9C }
  - { offsetInCU: 0x12391, offset: 0x12391, size: 0x8, addend: 0x0, symName: __ZNSt3__16vectorI8CustomerNS_9allocatorIS1_EEE16__destroy_vectorC2ERS4_, symObjAddr: 0x1FA4, symBinAddr: 0x100002FD0, symSize: 0x20 }
  - { offsetInCU: 0x123CA, offset: 0x123CA, size: 0x8, addend: 0x0, symName: __ZNKSt3__16vectorI8CustomerNS_9allocatorIS1_EEE17__annotate_deleteB7v160006Ev, symObjAddr: 0x1FC4, symBinAddr: 0x100002FF0, symSize: 0xB8 }
  - { offsetInCU: 0x123F0, offset: 0x123F0, size: 0x8, addend: 0x0, symName: __ZNSt3__16vectorI8CustomerNS_9allocatorIS1_EEE7__clearB7v160006Ev, symObjAddr: 0x208C, symBinAddr: 0x1000030B8, symSize: 0x28 }
  - { offsetInCU: 0x12416, offset: 0x12416, size: 0x8, addend: 0x0, symName: __ZNSt3__16vectorI8CustomerNS_9allocatorIS1_EEE7__allocB7v160006Ev, symObjAddr: 0x20B4, symBinAddr: 0x1000030E0, symSize: 0x28 }
  - { offsetInCU: 0x1243C, offset: 0x1243C, size: 0x8, addend: 0x0, symName: __ZNKSt3__16vectorI8CustomerNS_9allocatorIS1_EEE8capacityB7v160006Ev, symObjAddr: 0x20DC, symBinAddr: 0x100003108, symSize: 0x40 }
  - { offsetInCU: 0x12462, offset: 0x12462, size: 0x8, addend: 0x0, symName: __ZNKSt3__16vectorI8CustomerNS_9allocatorIS1_EEE31__annotate_contiguous_containerB7v160006EPKvS6_S6_S6_, symObjAddr: 0x211C, symBinAddr: 0x100003148, symSize: 0x20 }
  - { offsetInCU: 0x124B4, offset: 0x124B4, size: 0x8, addend: 0x0, symName: __ZNKSt3__16vectorI8CustomerNS_9allocatorIS1_EEE4dataB7v160006Ev, symObjAddr: 0x213C, symBinAddr: 0x100003168, symSize: 0x28 }
  - { offsetInCU: 0x124DA, offset: 0x124DA, size: 0x8, addend: 0x0, symName: __ZNSt3__16vectorI8CustomerNS_9allocatorIS1_EEE22__base_destruct_at_endB7v160006EPS1_, symObjAddr: 0x2178, symBinAddr: 0x1000031A4, symSize: 0x8C }
  - { offsetInCU: 0x1251E, offset: 0x1251E, size: 0x8, addend: 0x0, symName: __ZNSt3__117__compressed_pairIP8CustomerNS_9allocatorIS1_EEE6secondB7v160006Ev, symObjAddr: 0x2204, symBinAddr: 0x100003230, symSize: 0x24 }
  - { offsetInCU: 0x12544, offset: 0x12544, size: 0x8, addend: 0x0, symName: __ZNKSt3__16vectorI8CustomerNS_9allocatorIS1_EEE9__end_capB7v160006Ev, symObjAddr: 0x2228, symBinAddr: 0x100003254, symSize: 0x28 }
  - { offsetInCU: 0x1256A, offset: 0x1256A, size: 0x8, addend: 0x0, symName: __ZNKSt3__117__compressed_pairIP8CustomerNS_9allocatorIS1_EEE5firstB7v160006Ev, symObjAddr: 0x2250, symBinAddr: 0x10000327C, symSize: 0x24 }
  - { offsetInCU: 0x12590, offset: 0x12590, size: 0x8, addend: 0x0, symName: __ZNKSt3__122__compressed_pair_elemIP8CustomerLi0ELb0EE5__getB7v160006Ev, symObjAddr: 0x2274, symBinAddr: 0x1000032A0, symSize: 0x14 }
  - { offsetInCU: 0x125B6, offset: 0x125B6, size: 0x8, addend: 0x0, symName: __ZNSt3__16vectorI7CounterNS_9allocatorIS1_EEEC2B7v160006Ev, symObjAddr: 0x2288, symBinAddr: 0x1000032B4, symSize: 0x58 }
  - { offsetInCU: 0x125E0, offset: 0x125E0, size: 0x8, addend: 0x0, symName: __ZNSt3__117__compressed_pairIP7CounterNS_9allocatorIS1_EEEC1B7v160006IDnNS_18__default_init_tagEEEOT_OT0_, symObjAddr: 0x22E0, symBinAddr: 0x10000330C, symSize: 0x3C }
  - { offsetInCU: 0x12638, offset: 0x12638, size: 0x8, addend: 0x0, symName: __ZNSt3__117__compressed_pairIP7CounterNS_9allocatorIS1_EEEC2B7v160006IDnNS_18__default_init_tagEEEOT_OT0_, symObjAddr: 0x232C, symBinAddr: 0x100003358, symSize: 0x40 }
  - { offsetInCU: 0x12690, offset: 0x12690, size: 0x8, addend: 0x0, symName: __ZNSt3__122__compressed_pair_elemIP7CounterLi0ELb0EEC2B7v160006IDnvEEOT_, symObjAddr: 0x236C, symBinAddr: 0x100003398, symSize: 0x1C }
  - { offsetInCU: 0x126D2, offset: 0x126D2, size: 0x8, addend: 0x0, symName: __ZNSt3__122__compressed_pair_elemINS_9allocatorI7CounterEELi1ELb1EEC2B7v160006ENS_18__default_init_tagE, symObjAddr: 0x2388, symBinAddr: 0x1000033B4, symSize: 0x2C }
  - { offsetInCU: 0x12706, offset: 0x12706, size: 0x8, addend: 0x0, symName: __ZNSt3__19allocatorI7CounterEC2B7v160006Ev, symObjAddr: 0x23B4, symBinAddr: 0x1000033E0, symSize: 0x2C }
  - { offsetInCU: 0x12730, offset: 0x12730, size: 0x8, addend: 0x0, symName: __ZNSt3__116__non_trivial_ifILb1ENS_9allocatorI7CounterEEEC2B7v160006Ev, symObjAddr: 0x23E0, symBinAddr: 0x10000340C, symSize: 0x14 }
  - { offsetInCU: 0x1275A, offset: 0x1275A, size: 0x8, addend: 0x0, symName: __ZNSt3__16vectorI7CounterNS_9allocatorIS1_EEED2B7v160006Ev, symObjAddr: 0x23F4, symBinAddr: 0x100003420, symSize: 0x44 }
  - { offsetInCU: 0x12784, offset: 0x12784, size: 0x8, addend: 0x0, symName: __ZNSt3__16vectorI7CounterNS_9allocatorIS1_EEE16__destroy_vectorC1ERS4_, symObjAddr: 0x2438, symBinAddr: 0x100003464, symSize: 0x34 }
  - { offsetInCU: 0x127BD, offset: 0x127BD, size: 0x8, addend: 0x0, symName: __ZNSt3__16vectorI7CounterNS_9allocatorIS1_EEE16__destroy_vectorclB7v160006Ev, symObjAddr: 0x246C, symBinAddr: 0x100003498, symSize: 0x9C }
  - { offsetInCU: 0x127E3, offset: 0x127E3, size: 0x8, addend: 0x0, symName: __ZNSt3__16vectorI7CounterNS_9allocatorIS1_EEE16__destroy_vectorC2ERS4_, symObjAddr: 0x2508, symBinAddr: 0x100003534, symSize: 0x20 }
  - { offsetInCU: 0x1281C, offset: 0x1281C, size: 0x8, addend: 0x0, symName: __ZNKSt3__16vectorI7CounterNS_9allocatorIS1_EEE17__annotate_deleteB7v160006Ev, symObjAddr: 0x2528, symBinAddr: 0x100003554, symSize: 0xB8 }
  - { offsetInCU: 0x12842, offset: 0x12842, size: 0x8, addend: 0x0, symName: __ZNSt3__16vectorI7CounterNS_9allocatorIS1_EEE7__clearB7v160006Ev, symObjAddr: 0x25F0, symBinAddr: 0x10000361C, symSize: 0x28 }
  - { offsetInCU: 0x12868, offset: 0x12868, size: 0x8, addend: 0x0, symName: __ZNSt3__116allocator_traitsINS_9allocatorI7CounterEEE10deallocateB7v160006ERS3_PS2_m, symObjAddr: 0x2618, symBinAddr: 0x100003644, symSize: 0x34 }
  - { offsetInCU: 0x128AA, offset: 0x128AA, size: 0x8, addend: 0x0, symName: __ZNSt3__16vectorI7CounterNS_9allocatorIS1_EEE7__allocB7v160006Ev, symObjAddr: 0x264C, symBinAddr: 0x100003678, symSize: 0x28 }
  - { offsetInCU: 0x128D0, offset: 0x128D0, size: 0x8, addend: 0x0, symName: __ZNKSt3__16vectorI7CounterNS_9allocatorIS1_EEE8capacityB7v160006Ev, symObjAddr: 0x2674, symBinAddr: 0x1000036A0, symSize: 0x40 }
  - { offsetInCU: 0x128F6, offset: 0x128F6, size: 0x8, addend: 0x0, symName: __ZNKSt3__16vectorI7CounterNS_9allocatorIS1_EEE31__annotate_contiguous_containerB7v160006EPKvS6_S6_S6_, symObjAddr: 0x26B4, symBinAddr: 0x1000036E0, symSize: 0x20 }
  - { offsetInCU: 0x12948, offset: 0x12948, size: 0x8, addend: 0x0, symName: __ZNKSt3__16vectorI7CounterNS_9allocatorIS1_EEE4dataB7v160006Ev, symObjAddr: 0x26D4, symBinAddr: 0x100003700, symSize: 0x28 }
  - { offsetInCU: 0x1296E, offset: 0x1296E, size: 0x8, addend: 0x0, symName: __ZNSt3__16vectorI7CounterNS_9allocatorIS1_EEE22__base_destruct_at_endB7v160006EPS1_, symObjAddr: 0x2710, symBinAddr: 0x10000373C, symSize: 0x8C }
  - { offsetInCU: 0x129B2, offset: 0x129B2, size: 0x8, addend: 0x0, symName: __ZNSt3__116allocator_traitsINS_9allocatorI7CounterEEE7destroyB7v160006IS2_vEEvRS3_PT_, symObjAddr: 0x279C, symBinAddr: 0x1000037C8, symSize: 0x2C }
  - { offsetInCU: 0x129EF, offset: 0x129EF, size: 0x8, addend: 0x0, symName: __ZNSt3__19allocatorI7CounterE7destroyB7v160006EPS1_, symObjAddr: 0x27C8, symBinAddr: 0x1000037F4, symSize: 0x28 }
  - { offsetInCU: 0x12A23, offset: 0x12A23, size: 0x8, addend: 0x0, symName: __ZNSt3__19allocatorI7CounterE10deallocateB7v160006EPS1_m, symObjAddr: 0x27F0, symBinAddr: 0x10000381C, symSize: 0x40 }
  - { offsetInCU: 0x12A65, offset: 0x12A65, size: 0x8, addend: 0x0, symName: __ZNSt3__117__compressed_pairIP7CounterNS_9allocatorIS1_EEE6secondB7v160006Ev, symObjAddr: 0x2830, symBinAddr: 0x10000385C, symSize: 0x24 }
  - { offsetInCU: 0x12A8B, offset: 0x12A8B, size: 0x8, addend: 0x0, symName: __ZNSt3__122__compressed_pair_elemINS_9allocatorI7CounterEELi1ELb1EE5__getB7v160006Ev, symObjAddr: 0x2854, symBinAddr: 0x100003880, symSize: 0x14 }
  - { offsetInCU: 0x12AB1, offset: 0x12AB1, size: 0x8, addend: 0x0, symName: __ZNKSt3__16vectorI7CounterNS_9allocatorIS1_EEE9__end_capB7v160006Ev, symObjAddr: 0x2868, symBinAddr: 0x100003894, symSize: 0x28 }
  - { offsetInCU: 0x12AD7, offset: 0x12AD7, size: 0x8, addend: 0x0, symName: __ZNKSt3__117__compressed_pairIP7CounterNS_9allocatorIS1_EEE5firstB7v160006Ev, symObjAddr: 0x2890, symBinAddr: 0x1000038BC, symSize: 0x24 }
  - { offsetInCU: 0x12AFD, offset: 0x12AFD, size: 0x8, addend: 0x0, symName: __ZNKSt3__122__compressed_pair_elemIP7CounterLi0ELb0EE5__getB7v160006Ev, symObjAddr: 0x28B4, symBinAddr: 0x1000038E0, symSize: 0x14 }
  - { offsetInCU: 0x12B23, offset: 0x12B23, size: 0x8, addend: 0x0, symName: __ZNSt3__16vectorI8CustomerNS_9allocatorIS1_EEE9__end_capB7v160006Ev, symObjAddr: 0x28C8, symBinAddr: 0x1000038F4, symSize: 0x28 }
  - { offsetInCU: 0x12B49, offset: 0x12B49, size: 0x8, addend: 0x0, symName: __ZNSt3__16vectorI8CustomerNS_9allocatorIS1_EEE22__construct_one_at_endB7v160006IJRKS1_EEEvDpOT_, symObjAddr: 0x28F0, symBinAddr: 0x10000391C, symSize: 0x90 }
  - { offsetInCU: 0x12B98, offset: 0x12B98, size: 0x8, addend: 0x0, symName: __ZNSt3__16vectorI8CustomerNS_9allocatorIS1_EEE21__push_back_slow_pathIRKS1_EEvOT_, symObjAddr: 0x2980, symBinAddr: 0x1000039AC, symSize: 0xD8 }
  - { offsetInCU: 0x12BF5, offset: 0x12BF5, size: 0x8, addend: 0x0, symName: __ZNSt3__117__compressed_pairIP8CustomerNS_9allocatorIS1_EEE5firstB7v160006Ev, symObjAddr: 0x2A58, symBinAddr: 0x100003A84, symSize: 0x24 }
  - { offsetInCU: 0x12C1B, offset: 0x12C1B, size: 0x8, addend: 0x0, symName: __ZNSt3__122__compressed_pair_elemIP8CustomerLi0ELb0EE5__getB7v160006Ev, symObjAddr: 0x2A7C, symBinAddr: 0x100003AA8, symSize: 0x14 }
  - { offsetInCU: 0x12C5A, offset: 0x12C5A, size: 0x8, addend: 0x0, symName: __ZNSt3__16vectorI8CustomerNS_9allocatorIS1_EEE21_ConstructTransactionC1B7v160006ERS4_m, symObjAddr: 0x2A90, symBinAddr: 0x100003ABC, symSize: 0x3C }
  - { offsetInCU: 0x12CA2, offset: 0x12CA2, size: 0x8, addend: 0x0, symName: __ZNSt3__116allocator_traitsINS_9allocatorI8CustomerEEE9constructB7v160006IS2_JRKS2_EvEEvRS3_PT_DpOT0_, symObjAddr: 0x2ACC, symBinAddr: 0x100003AF8, symSize: 0x34 }
  - { offsetInCU: 0x12CF9, offset: 0x12CF9, size: 0x8, addend: 0x0, symName: __ZNSt3__16vectorI8CustomerNS_9allocatorIS1_EEE21_ConstructTransactionD1B7v160006Ev, symObjAddr: 0x2B00, symBinAddr: 0x100003B2C, symSize: 0x2C }
  - { offsetInCU: 0x12D23, offset: 0x12D23, size: 0x8, addend: 0x0, symName: __ZNSt3__16vectorI8CustomerNS_9allocatorIS1_EEE21_ConstructTransactionC2B7v160006ERS4_m, symObjAddr: 0x2B2C, symBinAddr: 0x100003B58, symSize: 0x44 }
  - { offsetInCU: 0x12D6B, offset: 0x12D6B, size: 0x8, addend: 0x0, symName: __ZNSt3__19allocatorI8CustomerE9constructB7v160006IS1_JRKS1_EEEvPT_DpOT0_, symObjAddr: 0x2B70, symBinAddr: 0x100003B9C, symSize: 0x28 }
  - { offsetInCU: 0x12DC1, offset: 0x12DC1, size: 0x8, addend: 0x0, symName: __ZNSt3__16vectorI8CustomerNS_9allocatorIS1_EEE21_ConstructTransactionD2B7v160006Ev, symObjAddr: 0x2B98, symBinAddr: 0x100003BC4, symSize: 0x20 }
  - { offsetInCU: 0x12DEB, offset: 0x12DEB, size: 0x8, addend: 0x0, symName: __ZNKSt3__16vectorI8CustomerNS_9allocatorIS1_EEE11__recommendB7v160006Em, symObjAddr: 0x2BB8, symBinAddr: 0x100003BE4, symSize: 0xB4 }
  - { offsetInCU: 0x12E3F, offset: 0x12E3F, size: 0x8, addend: 0x0, symName: __ZNSt3__114__split_bufferI8CustomerRNS_9allocatorIS1_EEEC1EmmS4_, symObjAddr: 0x2C6C, symBinAddr: 0x100003C98, symSize: 0x44 }
  - { offsetInCU: 0x12E95, offset: 0x12E95, size: 0x8, addend: 0x0, symName: __ZNSt3__114__split_bufferI8CustomerRNS_9allocatorIS1_EEED1Ev, symObjAddr: 0x2DC8, symBinAddr: 0x100003DF4, symSize: 0x2C }
  - { offsetInCU: 0x12EC1, offset: 0x12EC1, size: 0x8, addend: 0x0, symName: __ZNKSt3__16vectorI8CustomerNS_9allocatorIS1_EEE8max_sizeEv, symObjAddr: 0x2DF4, symBinAddr: 0x100003E20, symSize: 0x60 }
  - { offsetInCU: 0x12EE8, offset: 0x12EE8, size: 0x8, addend: 0x0, symName: __ZNKSt3__16vectorI8CustomerNS_9allocatorIS1_EEE20__throw_length_errorB7v160006Ev, symObjAddr: 0x2E54, symBinAddr: 0x100003E80, symSize: 0x1C }
  - { offsetInCU: 0x12F18, offset: 0x12F18, size: 0x8, addend: 0x0, symName: __ZNSt3__116allocator_traitsINS_9allocatorI8CustomerEEE8max_sizeB7v160006IS3_vEEmRKS3_, symObjAddr: 0x2EC8, symBinAddr: 0x100003EF4, symSize: 0x24 }
  - { offsetInCU: 0x12F46, offset: 0x12F46, size: 0x8, addend: 0x0, symName: __ZNKSt3__16vectorI8CustomerNS_9allocatorIS1_EEE7__allocB7v160006Ev, symObjAddr: 0x2EEC, symBinAddr: 0x100003F18, symSize: 0x28 }
  - { offsetInCU: 0x12F6C, offset: 0x12F6C, size: 0x8, addend: 0x0, symName: __ZNSt3__114numeric_limitsIlE3maxB7v160006Ev, symObjAddr: 0x2F14, symBinAddr: 0x100003F40, symSize: 0x14 }
  - { offsetInCU: 0x12F8A, offset: 0x12F8A, size: 0x8, addend: 0x0, symName: __ZNKSt3__16__lessImmEclB7v160006ERKmS3_, symObjAddr: 0x2F7C, symBinAddr: 0x100003FA8, symSize: 0x34 }
  - { offsetInCU: 0x12FCC, offset: 0x12FCC, size: 0x8, addend: 0x0, symName: __ZNKSt3__19allocatorI8CustomerE8max_sizeB7v160006Ev, symObjAddr: 0x2FB0, symBinAddr: 0x100003FDC, symSize: 0x14 }
  - { offsetInCU: 0x12FF2, offset: 0x12FF2, size: 0x8, addend: 0x0, symName: __ZNKSt3__117__compressed_pairIP8CustomerNS_9allocatorIS1_EEE6secondB7v160006Ev, symObjAddr: 0x2FC4, symBinAddr: 0x100003FF0, symSize: 0x24 }
  - { offsetInCU: 0x13018, offset: 0x13018, size: 0x8, addend: 0x0, symName: __ZNKSt3__122__compressed_pair_elemINS_9allocatorI8CustomerEELi1ELb1EE5__getB7v160006Ev, symObjAddr: 0x2FE8, symBinAddr: 0x100004014, symSize: 0x14 }
  - { offsetInCU: 0x1303E, offset: 0x1303E, size: 0x8, addend: 0x0, symName: __ZNSt3__123__libcpp_numeric_limitsIlLb1EE3maxB7v160006Ev, symObjAddr: 0x2FFC, symBinAddr: 0x100004028, symSize: 0x8 }
  - { offsetInCU: 0x13052, offset: 0x13052, size: 0x8, addend: 0x0, symName: __ZNSt12length_errorC1B7v160006EPKc, symObjAddr: 0x3068, symBinAddr: 0x100004094, symSize: 0x34 }
  - { offsetInCU: 0x1308A, offset: 0x1308A, size: 0x8, addend: 0x0, symName: __ZNSt12length_errorC2B7v160006EPKc, symObjAddr: 0x309C, symBinAddr: 0x1000040C8, symSize: 0x4C }
  - { offsetInCU: 0x130C2, offset: 0x130C2, size: 0x8, addend: 0x0, symName: __ZNSt3__114__split_bufferI8CustomerRNS_9allocatorIS1_EEEC2EmmS4_, symObjAddr: 0x313C, symBinAddr: 0x100004168, symSize: 0xD4 }
  - { offsetInCU: 0x13136, offset: 0x13136, size: 0x8, addend: 0x0, symName: __ZNSt3__117__compressed_pairIP8CustomerRNS_9allocatorIS1_EEEC1B7v160006IDnS5_EEOT_OT0_, symObjAddr: 0x3210, symBinAddr: 0x10000423C, symSize: 0x3C }
  - { offsetInCU: 0x1318E, offset: 0x1318E, size: 0x8, addend: 0x0, symName: __ZNSt3__114__split_bufferI8CustomerRNS_9allocatorIS1_EEE7__allocB7v160006Ev, symObjAddr: 0x328C, symBinAddr: 0x1000042B8, symSize: 0x28 }
  - { offsetInCU: 0x131B4, offset: 0x131B4, size: 0x8, addend: 0x0, symName: __ZNSt3__114__split_bufferI8CustomerRNS_9allocatorIS1_EEE9__end_capB7v160006Ev, symObjAddr: 0x32B4, symBinAddr: 0x1000042E0, symSize: 0x28 }
  - { offsetInCU: 0x131DA, offset: 0x131DA, size: 0x8, addend: 0x0, symName: __ZNSt3__117__compressed_pairIP8CustomerRNS_9allocatorIS1_EEEC2B7v160006IDnS5_EEOT_OT0_, symObjAddr: 0x32DC, symBinAddr: 0x100004308, symSize: 0x48 }
  - { offsetInCU: 0x13232, offset: 0x13232, size: 0x8, addend: 0x0, symName: __ZNSt3__122__compressed_pair_elemIRNS_9allocatorI8CustomerEELi1ELb0EEC2B7v160006IS4_vEEOT_, symObjAddr: 0x3324, symBinAddr: 0x100004350, symSize: 0x20 }
  - { offsetInCU: 0x13274, offset: 0x13274, size: 0x8, addend: 0x0, symName: __ZNSt3__19allocatorI8CustomerE8allocateB7v160006Em, symObjAddr: 0x3344, symBinAddr: 0x100004370, symSize: 0x58 }
  - { offsetInCU: 0x132A8, offset: 0x132A8, size: 0x8, addend: 0x0, symName: __ZNSt3__117__compressed_pairIP8CustomerRNS_9allocatorIS1_EEE6secondB7v160006Ev, symObjAddr: 0x341C, symBinAddr: 0x100004448, symSize: 0x28 }
  - { offsetInCU: 0x132CE, offset: 0x132CE, size: 0x8, addend: 0x0, symName: __ZNSt3__122__compressed_pair_elemIRNS_9allocatorI8CustomerEELi1ELb0EE5__getB7v160006Ev, symObjAddr: 0x3444, symBinAddr: 0x100004470, symSize: 0x18 }
  - { offsetInCU: 0x132F4, offset: 0x132F4, size: 0x8, addend: 0x0, symName: __ZNSt3__117__compressed_pairIP8CustomerRNS_9allocatorIS1_EEE5firstB7v160006Ev, symObjAddr: 0x345C, symBinAddr: 0x100004488, symSize: 0x24 }
  - { offsetInCU: 0x1331A, offset: 0x1331A, size: 0x8, addend: 0x0, symName: __ZNSt3__116reverse_iteratorIP8CustomerEC1B7v160006ES2_, symObjAddr: 0x34F8, symBinAddr: 0x100004524, symSize: 0x34 }
  - { offsetInCU: 0x13352, offset: 0x13352, size: 0x8, addend: 0x0, symName: __ZNKSt3__116reverse_iteratorIP8CustomerE4baseB7v160006Ev, symObjAddr: 0x352C, symBinAddr: 0x100004558, symSize: 0x18 }
  - { offsetInCU: 0x13378, offset: 0x13378, size: 0x8, addend: 0x0, symName: __ZNKSt3__16vectorI8CustomerNS_9allocatorIS1_EEE14__annotate_newB7v160006Em, symObjAddr: 0x3580, symBinAddr: 0x1000045AC, symSize: 0xAC }
  - { offsetInCU: 0x133D0, offset: 0x133D0, size: 0x8, addend: 0x0, symName: __ZNKSt3__111__move_loopINS_17_ClassicAlgPolicyEEclB7v160006INS_16reverse_iteratorIP8CustomerEES7_S7_EENS_4pairIT_T1_EES9_T0_SA_, symObjAddr: 0x392C, symBinAddr: 0x100004958, symSize: 0xA0 }
  - { offsetInCU: 0x13440, offset: 0x13440, size: 0x8, addend: 0x0, symName: __ZNSt3__18_IterOpsINS_17_ClassicAlgPolicyEE11__iter_moveB7v160006IRNS_16reverse_iteratorIP8CustomerEEEENS_9enable_ifIXsr12is_referenceIDTdeclsr3stdE7declvalIRT_EEEEE5valueEDTclsr3stdE4movedeclsr3stdE7declvalISB_EEEEE4typeEOSA_, symObjAddr: 0x3B60, symBinAddr: 0x100004B8C, symSize: 0x28 }
  - { offsetInCU: 0x1346C, offset: 0x1346C, size: 0x8, addend: 0x0, symName: __ZNKSt3__116reverse_iteratorIP8CustomerEdeB7v160006Ev, symObjAddr: 0x3B88, symBinAddr: 0x100004BB4, symSize: 0x28 }
  - { offsetInCU: 0x134A0, offset: 0x134A0, size: 0x8, addend: 0x0, symName: __ZNSt3__116reverse_iteratorIP8CustomerEppB7v160006Ev, symObjAddr: 0x3BB0, symBinAddr: 0x100004BDC, symSize: 0x20 }
  - { offsetInCU: 0x134C6, offset: 0x134C6, size: 0x8, addend: 0x0, symName: __ZNSt3__18_IterOpsINS_17_ClassicAlgPolicyEE25__validate_iter_referenceB7v160006IRNS_16reverse_iteratorIP8CustomerEEEEvv, symObjAddr: 0x3BD0, symBinAddr: 0x100004BFC, symSize: 0x4 }
  - { offsetInCU: 0x134E4, offset: 0x134E4, size: 0x8, addend: 0x0, symName: __ZNSt3__118__unwrap_iter_implINS_16reverse_iteratorIP8CustomerEELb0EE8__unwrapB7v160006ES4_, symObjAddr: 0x3BD4, symBinAddr: 0x100004C00, symSize: 0x24 }
  - { offsetInCU: 0x1350C, offset: 0x1350C, size: 0x8, addend: 0x0, symName: __ZNSt3__14pairINS_16reverse_iteratorIP8CustomerEES4_EC1B7v160006IS4_S4_LPv0EEEOT_OT0_, symObjAddr: 0x3BF8, symBinAddr: 0x100004C24, symSize: 0x3C }
  - { offsetInCU: 0x1356A, offset: 0x1356A, size: 0x8, addend: 0x0, symName: __ZNSt3__14pairINS_16reverse_iteratorIP8CustomerEES4_EC2B7v160006IS4_S4_LPv0EEEOT_OT0_, symObjAddr: 0x3C34, symBinAddr: 0x100004C60, symSize: 0x34 }
  - { offsetInCU: 0x135C8, offset: 0x135C8, size: 0x8, addend: 0x0, symName: __ZNSt3__118__unwrap_iter_implINS_16reverse_iteratorIP8CustomerEELb0EE8__rewrapB7v160006ES4_S4_, symObjAddr: 0x3C68, symBinAddr: 0x100004C94, symSize: 0x2C }
  - { offsetInCU: 0x135F5, offset: 0x135F5, size: 0x8, addend: 0x0, symName: __ZNSt3__116reverse_iteratorIP8CustomerEC2B7v160006ES2_, symObjAddr: 0x3C94, symBinAddr: 0x100004CC0, symSize: 0x28 }
  - { offsetInCU: 0x1362D, offset: 0x1362D, size: 0x8, addend: 0x0, symName: __ZNSt3__114__split_bufferI8CustomerRNS_9allocatorIS1_EEED2Ev, symObjAddr: 0x3CBC, symBinAddr: 0x100004CE8, symSize: 0x8C }
  - { offsetInCU: 0x13659, offset: 0x13659, size: 0x8, addend: 0x0, symName: __ZNSt3__114__split_bufferI8CustomerRNS_9allocatorIS1_EEE5clearB7v160006Ev, symObjAddr: 0x3D48, symBinAddr: 0x100004D74, symSize: 0x28 }
  - { offsetInCU: 0x1367F, offset: 0x1367F, size: 0x8, addend: 0x0, symName: __ZNKSt3__114__split_bufferI8CustomerRNS_9allocatorIS1_EEE8capacityB7v160006Ev, symObjAddr: 0x3D70, symBinAddr: 0x100004D9C, symSize: 0x40 }
  - { offsetInCU: 0x136A5, offset: 0x136A5, size: 0x8, addend: 0x0, symName: __ZNSt3__114__split_bufferI8CustomerRNS_9allocatorIS1_EEE17__destruct_at_endB7v160006EPS1_, symObjAddr: 0x3DB0, symBinAddr: 0x100004DDC, symSize: 0x2C }
  - { offsetInCU: 0x136D9, offset: 0x136D9, size: 0x8, addend: 0x0, symName: __ZNSt3__114__split_bufferI8CustomerRNS_9allocatorIS1_EEE17__destruct_at_endB7v160006EPS1_NS_17integral_constantIbLb0EEE, symObjAddr: 0x3DDC, symBinAddr: 0x100004E08, symSize: 0x80 }
  - { offsetInCU: 0x13718, offset: 0x13718, size: 0x8, addend: 0x0, symName: __ZNKSt3__114__split_bufferI8CustomerRNS_9allocatorIS1_EEE9__end_capB7v160006Ev, symObjAddr: 0x3E5C, symBinAddr: 0x100004E88, symSize: 0x28 }
  - { offsetInCU: 0x1373E, offset: 0x1373E, size: 0x8, addend: 0x0, symName: __ZNKSt3__117__compressed_pairIP8CustomerRNS_9allocatorIS1_EEE5firstB7v160006Ev, symObjAddr: 0x3E84, symBinAddr: 0x100004EB0, symSize: 0x24 }
  - { offsetInCU: 0x13764, offset: 0x13764, size: 0x8, addend: 0x0, symName: __ZNSt3__16vectorI7CounterNS_9allocatorIS1_EEE9__end_capB7v160006Ev, symObjAddr: 0x3EA8, symBinAddr: 0x100004ED4, symSize: 0x28 }
  - { offsetInCU: 0x1378A, offset: 0x1378A, size: 0x8, addend: 0x0, symName: __ZNSt3__16vectorI7CounterNS_9allocatorIS1_EEE22__construct_one_at_endB7v160006IJRKS1_EEEvDpOT_, symObjAddr: 0x3ED0, symBinAddr: 0x100004EFC, symSize: 0x90 }
  - { offsetInCU: 0x137D9, offset: 0x137D9, size: 0x8, addend: 0x0, symName: __ZNSt3__16vectorI7CounterNS_9allocatorIS1_EEE21__push_back_slow_pathIRKS1_EEvOT_, symObjAddr: 0x3F60, symBinAddr: 0x100004F8C, symSize: 0xD8 }
  - { offsetInCU: 0x13836, offset: 0x13836, size: 0x8, addend: 0x0, symName: __ZNSt3__117__compressed_pairIP7CounterNS_9allocatorIS1_EEE5firstB7v160006Ev, symObjAddr: 0x4038, symBinAddr: 0x100005064, symSize: 0x24 }
  - { offsetInCU: 0x1385C, offset: 0x1385C, size: 0x8, addend: 0x0, symName: __ZNSt3__122__compressed_pair_elemIP7CounterLi0ELb0EE5__getB7v160006Ev, symObjAddr: 0x405C, symBinAddr: 0x100005088, symSize: 0x14 }
  - { offsetInCU: 0x1389B, offset: 0x1389B, size: 0x8, addend: 0x0, symName: __ZNSt3__16vectorI7CounterNS_9allocatorIS1_EEE21_ConstructTransactionC1B7v160006ERS4_m, symObjAddr: 0x4070, symBinAddr: 0x10000509C, symSize: 0x3C }
  - { offsetInCU: 0x138E3, offset: 0x138E3, size: 0x8, addend: 0x0, symName: __ZNSt3__116allocator_traitsINS_9allocatorI7CounterEEE9constructB7v160006IS2_JRKS2_EvEEvRS3_PT_DpOT0_, symObjAddr: 0x40AC, symBinAddr: 0x1000050D8, symSize: 0x34 }
  - { offsetInCU: 0x1393A, offset: 0x1393A, size: 0x8, addend: 0x0, symName: __ZNSt3__16vectorI7CounterNS_9allocatorIS1_EEE21_ConstructTransactionD1B7v160006Ev, symObjAddr: 0x40E0, symBinAddr: 0x10000510C, symSize: 0x2C }
  - { offsetInCU: 0x13964, offset: 0x13964, size: 0x8, addend: 0x0, symName: __ZNSt3__16vectorI7CounterNS_9allocatorIS1_EEE21_ConstructTransactionC2B7v160006ERS4_m, symObjAddr: 0x410C, symBinAddr: 0x100005138, symSize: 0x44 }
  - { offsetInCU: 0x139AC, offset: 0x139AC, size: 0x8, addend: 0x0, symName: __ZNSt3__19allocatorI7CounterE9constructB7v160006IS1_JRKS1_EEEvPT_DpOT0_, symObjAddr: 0x4150, symBinAddr: 0x10000517C, symSize: 0x30 }
  - { offsetInCU: 0x13A02, offset: 0x13A02, size: 0x8, addend: 0x0, symName: __ZN7CounterC1ERKS_, symObjAddr: 0x4180, symBinAddr: 0x1000051AC, symSize: 0x34 }
  - { offsetInCU: 0x13A37, offset: 0x13A37, size: 0x8, addend: 0x0, symName: __ZN7CounterC2ERKS_, symObjAddr: 0x41B4, symBinAddr: 0x1000051E0, symSize: 0x54 }
  - { offsetInCU: 0x13A6C, offset: 0x13A6C, size: 0x8, addend: 0x0, symName: __ZNSt3__15dequeI8CustomerNS_9allocatorIS1_EEEC1ERKS4_, symObjAddr: 0x4208, symBinAddr: 0x100005234, symSize: 0x34 }
  - { offsetInCU: 0x13AA7, offset: 0x13AA7, size: 0x8, addend: 0x0, symName: __ZNSt3__15dequeI8CustomerNS_9allocatorIS1_EEEC2ERKS4_, symObjAddr: 0x423C, symBinAddr: 0x100005268, symSize: 0xEC }
  - { offsetInCU: 0x13AE2, offset: 0x13AE2, size: 0x8, addend: 0x0, symName: __ZNSt3__116allocator_traitsINS_9allocatorI8CustomerEEE37select_on_container_copy_constructionB7v160006IS3_vvEES3_RKS3_, symObjAddr: 0x4328, symBinAddr: 0x100005354, symSize: 0x10 }
  - { offsetInCU: 0x13B11, offset: 0x13B11, size: 0x8, addend: 0x0, symName: __ZNKSt3__15dequeI8CustomerNS_9allocatorIS1_EEE7__allocB7v160006Ev, symObjAddr: 0x4338, symBinAddr: 0x100005364, symSize: 0x28 }
  - { offsetInCU: 0x13B37, offset: 0x13B37, size: 0x8, addend: 0x0, symName: __ZNSt3__19allocatorIP8CustomerEC1B7v160006IS1_EERKNS0_IT_EE, symObjAddr: 0x4360, symBinAddr: 0x10000538C, symSize: 0x34 }
  - { offsetInCU: 0x13B74, offset: 0x13B74, size: 0x8, addend: 0x0, symName: __ZNSt3__114__split_bufferIP8CustomerNS_9allocatorIS2_EEEC1ERKS4_, symObjAddr: 0x4394, symBinAddr: 0x1000053C0, symSize: 0x34 }
  - { offsetInCU: 0x13BAE, offset: 0x13BAE, size: 0x8, addend: 0x0, symName: __ZNSt3__117__compressed_pairImNS_9allocatorI8CustomerEEEC1B7v160006IiRNS1_IPS2_EEEEOT_OT0_, symObjAddr: 0x43C8, symBinAddr: 0x1000053F4, symSize: 0x3C }
  - { offsetInCU: 0x13C0B, offset: 0x13C0B, size: 0x8, addend: 0x0, symName: __ZNSt3__15dequeI8CustomerNS_9allocatorIS1_EEE8__appendINS_16__deque_iteratorIS1_PKS1_RS7_PKS8_lLl512EEEEEvT_SD_PNS_9enable_ifIXsr27__is_cpp17_forward_iteratorISD_EE5valueEvE4typeE, symObjAddr: 0x4404, symBinAddr: 0x100005430, symSize: 0x248 }
  - { offsetInCU: 0x13CF9, offset: 0x13CF9, size: 0x8, addend: 0x0, symName: __ZNKSt3__15dequeI8CustomerNS_9allocatorIS1_EEE5beginB7v160006Ev, symObjAddr: 0x464C, symBinAddr: 0x100005678, symSize: 0xA8 }
  - { offsetInCU: 0x13D2E, offset: 0x13D2E, size: 0x8, addend: 0x0, symName: __ZNKSt3__15dequeI8CustomerNS_9allocatorIS1_EEE3endB7v160006Ev, symObjAddr: 0x46F4, symBinAddr: 0x100005720, symSize: 0xBC }
  - { offsetInCU: 0x13D72, offset: 0x13D72, size: 0x8, addend: 0x0, symName: __ZNKSt3__117__compressed_pairImNS_9allocatorI8CustomerEEE6secondB7v160006Ev, symObjAddr: 0x47B0, symBinAddr: 0x1000057DC, symSize: 0x24 }
  - { offsetInCU: 0x13D98, offset: 0x13D98, size: 0x8, addend: 0x0, symName: __ZNSt3__19allocatorIP8CustomerEC2B7v160006IS1_EERKNS0_IT_EE, symObjAddr: 0x47D4, symBinAddr: 0x100005800, symSize: 0x30 }
  - { offsetInCU: 0x13DD5, offset: 0x13DD5, size: 0x8, addend: 0x0, symName: __ZNSt3__114__split_bufferIP8CustomerNS_9allocatorIS2_EEEC2ERKS4_, symObjAddr: 0x4804, symBinAddr: 0x100005830, symSize: 0x4C }
  - { offsetInCU: 0x13E0F, offset: 0x13E0F, size: 0x8, addend: 0x0, symName: __ZNSt3__117__compressed_pairIPP8CustomerNS_9allocatorIS2_EEEC1B7v160006IDnRKS5_EEOT_OT0_, symObjAddr: 0x4850, symBinAddr: 0x10000587C, symSize: 0x3C }
  - { offsetInCU: 0x13E67, offset: 0x13E67, size: 0x8, addend: 0x0, symName: __ZNSt3__117__compressed_pairIPP8CustomerNS_9allocatorIS2_EEEC2B7v160006IDnRKS5_EEOT_OT0_, symObjAddr: 0x488C, symBinAddr: 0x1000058B8, symSize: 0x44 }
  - { offsetInCU: 0x13EBF, offset: 0x13EBF, size: 0x8, addend: 0x0, symName: __ZNSt3__122__compressed_pair_elemINS_9allocatorIP8CustomerEELi1ELb1EEC2B7v160006IRKS4_vEEOT_, symObjAddr: 0x48D0, symBinAddr: 0x1000058FC, symSize: 0x18 }
  - { offsetInCU: 0x13F01, offset: 0x13F01, size: 0x8, addend: 0x0, symName: __ZNSt3__117__compressed_pairImNS_9allocatorI8CustomerEEEC2B7v160006IiRNS1_IPS2_EEEEOT_OT0_, symObjAddr: 0x48E8, symBinAddr: 0x100005914, symSize: 0x44 }
  - { offsetInCU: 0x13F59, offset: 0x13F59, size: 0x8, addend: 0x0, symName: __ZNSt3__122__compressed_pair_elemINS_9allocatorI8CustomerEELi1ELb1EEC2B7v160006IRNS1_IPS2_EEvEEOT_, symObjAddr: 0x492C, symBinAddr: 0x100005958, symSize: 0x34 }
  - { offsetInCU: 0x13F9B, offset: 0x13F9B, size: 0x8, addend: 0x0, symName: __ZNSt3__19allocatorI8CustomerEC2B7v160006IPS1_EERKNS0_IT_EE, symObjAddr: 0x4960, symBinAddr: 0x10000598C, symSize: 0x30 }
  - { offsetInCU: 0x13FD8, offset: 0x13FD8, size: 0x8, addend: 0x0, symName: __ZNKSt3__15dequeI8CustomerNS_9allocatorIS1_EEE12__back_spareB7v160006Ev, symObjAddr: 0x49DC, symBinAddr: 0x100005A08, symSize: 0x54 }
  - { offsetInCU: 0x13FFE, offset: 0x13FFE, size: 0x8, addend: 0x0, symName: __ZNSt3__15dequeI8CustomerNS_9allocatorIS1_EEE19__add_back_capacityEm, symObjAddr: 0x4A30, symBinAddr: 0x100005A5C, symSize: 0x5B8 }
  - { offsetInCU: 0x14102, offset: 0x14102, size: 0x8, addend: 0x0, symName: __ZNKSt3__116__deque_iteratorI8CustomerPS1_RS1_PS2_lLl512EEplB7v160006El, symObjAddr: 0x4FE8, symBinAddr: 0x100006014, symSize: 0x40 }
  - { offsetInCU: 0x14169, offset: 0x14169, size: 0x8, addend: 0x0, symName: __ZNSt3__15dequeI8CustomerNS_9allocatorIS1_EEE13__deque_rangeC1B7v160006ENS_16__deque_iteratorIS1_PS1_RS1_PS7_lLl512EEESA_, symObjAddr: 0x5028, symBinAddr: 0x100006054, symSize: 0x4C }
  - { offsetInCU: 0x141B1, offset: 0x141B1, size: 0x8, addend: 0x0, symName: __ZNKSt3__15dequeI8CustomerNS_9allocatorIS1_EEE13__deque_range5beginB7v160006Ev, symObjAddr: 0x5074, symBinAddr: 0x1000060A0, symSize: 0x24 }
  - { offsetInCU: 0x141D7, offset: 0x141D7, size: 0x8, addend: 0x0, symName: __ZNKSt3__15dequeI8CustomerNS_9allocatorIS1_EEE13__deque_range3endB7v160006Ev, symObjAddr: 0x5098, symBinAddr: 0x1000060C4, symSize: 0x50 }
  - { offsetInCU: 0x141FD, offset: 0x141FD, size: 0x8, addend: 0x0, symName: __ZNKSt3__15dequeI8CustomerNS_9allocatorIS1_EEE13__deque_rangedeB7v160006Ev, symObjAddr: 0x511C, symBinAddr: 0x100006148, symSize: 0x7C }
  - { offsetInCU: 0x14237, offset: 0x14237, size: 0x8, addend: 0x0, symName: __ZNSt3__15dequeI8CustomerNS_9allocatorIS1_EEE21_ConstructTransactionC1B7v160006EPS4_RNS4_19__deque_block_rangeE, symObjAddr: 0x5198, symBinAddr: 0x1000061C4, symSize: 0x3C }
  - { offsetInCU: 0x1427F, offset: 0x1427F, size: 0x8, addend: 0x0, symName: __ZNKSt3__116__deque_iteratorI8CustomerPKS1_RS2_PKS3_lLl512EEdeB7v160006Ev, symObjAddr: 0x51D4, symBinAddr: 0x100006200, symSize: 0x18 }
  - { offsetInCU: 0x142A5, offset: 0x142A5, size: 0x8, addend: 0x0, symName: __ZNSt3__116__deque_iteratorI8CustomerPKS1_RS2_PKS3_lLl512EEppB7v160006Ev, symObjAddr: 0x51EC, symBinAddr: 0x100006218, symSize: 0x70 }
  - { offsetInCU: 0x142CB, offset: 0x142CB, size: 0x8, addend: 0x0, symName: __ZNSt3__15dequeI8CustomerNS_9allocatorIS1_EEE21_ConstructTransactionD1B7v160006Ev, symObjAddr: 0x525C, symBinAddr: 0x100006288, symSize: 0x2C }
  - { offsetInCU: 0x142F5, offset: 0x142F5, size: 0x8, addend: 0x0, symName: __ZNSt3__15dequeI8CustomerNS_9allocatorIS1_EEE13__deque_rangeppB7v160006Ev, symObjAddr: 0x5288, symBinAddr: 0x1000062B4, symSize: 0x64 }
  - { offsetInCU: 0x1431B, offset: 0x1431B, size: 0x8, addend: 0x0, symName: __ZNKSt3__15dequeI8CustomerNS_9allocatorIS1_EEE10__capacityB7v160006Ev, symObjAddr: 0x542C, symBinAddr: 0x100006458, symSize: 0x60 }
  - { offsetInCU: 0x14341, offset: 0x14341, size: 0x8, addend: 0x0, symName: __ZNKSt3__15dequeI8CustomerNS_9allocatorIS1_EEE4sizeB7v160006Ev, symObjAddr: 0x548C, symBinAddr: 0x1000064B8, symSize: 0x28 }
  - { offsetInCU: 0x14367, offset: 0x14367, size: 0x8, addend: 0x0, symName: __ZNKSt3__15dequeI8CustomerNS_9allocatorIS1_EEE6__sizeB7v160006Ev, symObjAddr: 0x54B4, symBinAddr: 0x1000064E0, symSize: 0x28 }
  - { offsetInCU: 0x1438D, offset: 0x1438D, size: 0x8, addend: 0x0, symName: __ZNKSt3__117__compressed_pairImNS_9allocatorI8CustomerEEE5firstB7v160006Ev, symObjAddr: 0x54DC, symBinAddr: 0x100006508, symSize: 0x24 }
  - { offsetInCU: 0x143B3, offset: 0x143B3, size: 0x8, addend: 0x0, symName: __ZNKSt3__122__compressed_pair_elemImLi0ELb0EE5__getB7v160006Ev, symObjAddr: 0x5500, symBinAddr: 0x10000652C, symSize: 0x14 }
  - { offsetInCU: 0x143D9, offset: 0x143D9, size: 0x8, addend: 0x0, symName: __ZNSt3__15dequeI8CustomerNS_9allocatorIS1_EEE18__recommend_blocksB7v160006Em, symObjAddr: 0x5514, symBinAddr: 0x100006540, symSize: 0x40 }
  - { offsetInCU: 0x143FD, offset: 0x143FD, size: 0x8, addend: 0x0, symName: __ZNKSt3__114__split_bufferIP8CustomerNS_9allocatorIS2_EEE5emptyB7v160006Ev, symObjAddr: 0x5554, symBinAddr: 0x100006580, symSize: 0x28 }
  - { offsetInCU: 0x14423, offset: 0x14423, size: 0x8, addend: 0x0, symName: __ZNKSt3__15dequeI8CustomerNS_9allocatorIS1_EEE13__front_spareB7v160006Ev, symObjAddr: 0x557C, symBinAddr: 0x1000065A8, symSize: 0x18 }
  - { offsetInCU: 0x14449, offset: 0x14449, size: 0x8, addend: 0x0, symName: __ZNSt3__114__split_bufferIP8CustomerNS_9allocatorIS2_EEE9push_backB7v160006ERKS2_, symObjAddr: 0x5594, symBinAddr: 0x1000065C0, symSize: 0x260 }
  - { offsetInCU: 0x144C1, offset: 0x144C1, size: 0x8, addend: 0x0, symName: __ZNKSt3__114__split_bufferIP8CustomerNS_9allocatorIS2_EEE12__back_spareB7v160006Ev, symObjAddr: 0x57F4, symBinAddr: 0x100006820, symSize: 0x40 }
  - { offsetInCU: 0x144E7, offset: 0x144E7, size: 0x8, addend: 0x0, symName: __ZNSt3__114__split_bufferIP8CustomerNS_9allocatorIS2_EEE9push_backEOS2_, symObjAddr: 0x5834, symBinAddr: 0x100006860, symSize: 0x260 }
  - { offsetInCU: 0x1455F, offset: 0x1455F, size: 0x8, addend: 0x0, symName: __ZNSt3__116allocator_traitsINS_9allocatorI8CustomerEEE8allocateB7v160006ERS3_m, symObjAddr: 0x5A94, symBinAddr: 0x100006AC0, symSize: 0x2C }
  - { offsetInCU: 0x14592, offset: 0x14592, size: 0x8, addend: 0x0, symName: __ZNSt3__114__split_bufferIP8CustomerNS_9allocatorIS2_EEE10push_frontEOS2_, symObjAddr: 0x5AC0, symBinAddr: 0x100006AEC, symSize: 0x25C }
  - { offsetInCU: 0x1460A, offset: 0x1460A, size: 0x8, addend: 0x0, symName: __ZNSt3__114__split_bufferIP8CustomerRNS_9allocatorIS2_EEEC1EmmS5_, symObjAddr: 0x5D1C, symBinAddr: 0x100006D48, symSize: 0x44 }
  - { offsetInCU: 0x14660, offset: 0x14660, size: 0x8, addend: 0x0, symName: __ZNSt3__114__split_bufferIP8CustomerRNS_9allocatorIS2_EEE9push_backEOS2_, symObjAddr: 0x5D60, symBinAddr: 0x100006D8C, symSize: 0x260 }
  - { offsetInCU: 0x146D8, offset: 0x146D8, size: 0x8, addend: 0x0, symName: __ZNSt3__114__split_bufferIP8CustomerRNS_9allocatorIS2_EEE5beginB7v160006Ev, symObjAddr: 0x5FC0, symBinAddr: 0x100006FEC, symSize: 0x18 }
  - { offsetInCU: 0x146FE, offset: 0x146FE, size: 0x8, addend: 0x0, symName: __ZNSt3__114__split_bufferIP8CustomerRNS_9allocatorIS2_EEE3endB7v160006Ev, symObjAddr: 0x5FD8, symBinAddr: 0x100007004, symSize: 0x18 }
  - { offsetInCU: 0x14724, offset: 0x14724, size: 0x8, addend: 0x0, symName: __ZNSt3__114__split_bufferIP8CustomerRNS_9allocatorIS2_EEE9push_backB7v160006ERKS2_, symObjAddr: 0x5FF0, symBinAddr: 0x10000701C, symSize: 0x260 }
  - { offsetInCU: 0x1479C, offset: 0x1479C, size: 0x8, addend: 0x0, symName: __ZNSt3__114__split_bufferIP8CustomerRNS_9allocatorIS2_EEE10push_frontERKS2_, symObjAddr: 0x6250, symBinAddr: 0x10000727C, symSize: 0x25C }
  - { offsetInCU: 0x14814, offset: 0x14814, size: 0x8, addend: 0x0, symName: __ZNSt3__114__split_bufferIP8CustomerNS_9allocatorIS2_EEE9__end_capB7v160006Ev, symObjAddr: 0x64E8, symBinAddr: 0x100007514, symSize: 0x28 }
  - { offsetInCU: 0x1483A, offset: 0x1483A, size: 0x8, addend: 0x0, symName: __ZNSt3__114__split_bufferIP8CustomerRNS_9allocatorIS2_EEE9__end_capB7v160006Ev, symObjAddr: 0x6510, symBinAddr: 0x10000753C, symSize: 0x28 }
  - { offsetInCU: 0x14860, offset: 0x14860, size: 0x8, addend: 0x0, symName: __ZNSt3__114__split_bufferIP8CustomerRNS_9allocatorIS2_EEED1Ev, symObjAddr: 0x6538, symBinAddr: 0x100007564, symSize: 0x2C }
  - { offsetInCU: 0x1488C, offset: 0x1488C, size: 0x8, addend: 0x0, symName: __ZNSt3__114__split_bufferIP8CustomerRNS_9allocatorIS2_EEE18__construct_at_endINS_13move_iteratorIPS2_EEEENS_9enable_ifIXsr27__is_cpp17_forward_iteratorIT_EE5valueEvE4typeESC_SC_, symObjAddr: 0x65A4, symBinAddr: 0x1000075D0, symSize: 0xFC }
  - { offsetInCU: 0x148E7, offset: 0x148E7, size: 0x8, addend: 0x0, symName: __ZNSt3__113move_iteratorIPP8CustomerEC1B7v160006ES3_, symObjAddr: 0x66A0, symBinAddr: 0x1000076CC, symSize: 0x34 }
  - { offsetInCU: 0x1491F, offset: 0x1491F, size: 0x8, addend: 0x0, symName: __ZNSt3__116allocator_traitsINS_9allocatorIP8CustomerEEE9constructB7v160006IS3_JRKS3_EvEEvRS4_PT_DpOT0_, symObjAddr: 0x66D4, symBinAddr: 0x100007700, symSize: 0x34 }
  - { offsetInCU: 0x14999, offset: 0x14999, size: 0x8, addend: 0x0, symName: __ZNKSt3__114__move_trivialclB7v160006IP8CustomerS3_Li0EEENS_4pairIPT_PT0_EES6_S6_S8_, symObjAddr: 0x68A4, symBinAddr: 0x1000078D0, symSize: 0x48 }
  - { offsetInCU: 0x14A06, offset: 0x14A06, size: 0x8, addend: 0x0, symName: __ZNSt3__14pairIPP8CustomerS3_EC1B7v160006IRS3_S3_LPv0EEEOT_OT0_, symObjAddr: 0x6A6C, symBinAddr: 0x100007A98, symSize: 0x3C }
  - { offsetInCU: 0x14A64, offset: 0x14A64, size: 0x8, addend: 0x0, symName: __ZNSt3__14pairIPP8CustomerS3_EC2B7v160006IRS3_S3_LPv0EEEOT_OT0_, symObjAddr: 0x6AA8, symBinAddr: 0x100007AD4, symSize: 0x34 }
  - { offsetInCU: 0x14AC2, offset: 0x14AC2, size: 0x8, addend: 0x0, symName: __ZNSt3__118__unwrap_iter_implIPP8CustomerLb1EE8__unwrapB7v160006ES3_, symObjAddr: 0x6ADC, symBinAddr: 0x100007B08, symSize: 0x24 }
  - { offsetInCU: 0x14AE5, offset: 0x14AE5, size: 0x8, addend: 0x0, symName: __ZNSt3__14pairIPP8CustomerS3_EC1B7v160006IS3_S3_LPv0EEEOT_OT0_, symObjAddr: 0x6B00, symBinAddr: 0x100007B2C, symSize: 0x3C }
  - { offsetInCU: 0x14B43, offset: 0x14B43, size: 0x8, addend: 0x0, symName: __ZNSt3__14pairIPP8CustomerS3_EC2B7v160006IS3_S3_LPv0EEEOT_OT0_, symObjAddr: 0x6B3C, symBinAddr: 0x100007B68, symSize: 0x34 }
  - { offsetInCU: 0x14BA1, offset: 0x14BA1, size: 0x8, addend: 0x0, symName: __ZNSt3__118__unwrap_iter_implIPP8CustomerLb1EE8__rewrapB7v160006ES3_S3_, symObjAddr: 0x6B70, symBinAddr: 0x100007B9C, symSize: 0x50 }
  - { offsetInCU: 0x14BDC, offset: 0x14BDC, size: 0x8, addend: 0x0, symName: __ZNSt3__114__split_bufferIP8CustomerRNS_9allocatorIS2_EEE21_ConstructTransactionC1B7v160006EPPS2_m, symObjAddr: 0x6BFC, symBinAddr: 0x100007C28, symSize: 0x3C }
  - { offsetInCU: 0x14C22, offset: 0x14C22, size: 0x8, addend: 0x0, symName: __ZNSt3__116allocator_traitsINS_9allocatorIP8CustomerEEE9constructB7v160006IS3_JS3_EvEEvRS4_PT_DpOT0_, symObjAddr: 0x6C38, symBinAddr: 0x100007C64, symSize: 0x34 }
  - { offsetInCU: 0x14C79, offset: 0x14C79, size: 0x8, addend: 0x0, symName: __ZNSt3__114__split_bufferIP8CustomerRNS_9allocatorIS2_EEE7__allocB7v160006Ev, symObjAddr: 0x6C6C, symBinAddr: 0x100007C98, symSize: 0x28 }
  - { offsetInCU: 0x14C9F, offset: 0x14C9F, size: 0x8, addend: 0x0, symName: __ZNKSt3__113move_iteratorIPP8CustomerEdeB7v160006Ev, symObjAddr: 0x6C94, symBinAddr: 0x100007CC0, symSize: 0x18 }
  - { offsetInCU: 0x14CC5, offset: 0x14CC5, size: 0x8, addend: 0x0, symName: __ZNSt3__113move_iteratorIPP8CustomerEppB7v160006Ev, symObjAddr: 0x6CAC, symBinAddr: 0x100007CD8, symSize: 0x20 }
  - { offsetInCU: 0x14CEB, offset: 0x14CEB, size: 0x8, addend: 0x0, symName: __ZNSt3__114__split_bufferIP8CustomerRNS_9allocatorIS2_EEE21_ConstructTransactionD1B7v160006Ev, symObjAddr: 0x6CCC, symBinAddr: 0x100007CF8, symSize: 0x2C }
  - { offsetInCU: 0x14D15, offset: 0x14D15, size: 0x8, addend: 0x0, symName: __ZNKSt3__113move_iteratorIPP8CustomerE4baseB7v160006Ev, symObjAddr: 0x6D70, symBinAddr: 0x100007D9C, symSize: 0x18 }
  - { offsetInCU: 0x14D3B, offset: 0x14D3B, size: 0x8, addend: 0x0, symName: __ZNSt3__114__split_bufferIP8CustomerRNS_9allocatorIS2_EEE21_ConstructTransactionC2B7v160006EPPS2_m, symObjAddr: 0x6D88, symBinAddr: 0x100007DB4, symSize: 0x44 }
  - { offsetInCU: 0x14D81, offset: 0x14D81, size: 0x8, addend: 0x0, symName: __ZNSt3__19allocatorIP8CustomerE9constructB7v160006IS2_JS2_EEEvPT_DpOT0_, symObjAddr: 0x6DCC, symBinAddr: 0x100007DF8, symSize: 0x28 }
  - { offsetInCU: 0x14DD7, offset: 0x14DD7, size: 0x8, addend: 0x0, symName: __ZNSt3__117__compressed_pairIPP8CustomerRNS_9allocatorIS2_EEE6secondB7v160006Ev, symObjAddr: 0x6DF4, symBinAddr: 0x100007E20, symSize: 0x28 }
  - { offsetInCU: 0x14DFD, offset: 0x14DFD, size: 0x8, addend: 0x0, symName: __ZNSt3__122__compressed_pair_elemIRNS_9allocatorIP8CustomerEELi1ELb0EE5__getB7v160006Ev, symObjAddr: 0x6E1C, symBinAddr: 0x100007E48, symSize: 0x18 }
  - { offsetInCU: 0x14E23, offset: 0x14E23, size: 0x8, addend: 0x0, symName: __ZNSt3__114__split_bufferIP8CustomerRNS_9allocatorIS2_EEE21_ConstructTransactionD2B7v160006Ev, symObjAddr: 0x6E34, symBinAddr: 0x100007E60, symSize: 0x20 }
  - { offsetInCU: 0x14E4D, offset: 0x14E4D, size: 0x8, addend: 0x0, symName: __ZNSt3__113move_iteratorIPP8CustomerEC2B7v160006ES3_, symObjAddr: 0x6E54, symBinAddr: 0x100007E80, symSize: 0x20 }
  - { offsetInCU: 0x14E85, offset: 0x14E85, size: 0x8, addend: 0x0, symName: __ZNSt3__19allocatorIP8CustomerE9constructB7v160006IS2_JRKS2_EEEvPT_DpOT0_, symObjAddr: 0x6E74, symBinAddr: 0x100007EA0, symSize: 0x28 }
  - { offsetInCU: 0x14EE5, offset: 0x14EE5, size: 0x8, addend: 0x0, symName: __ZNKSt3__123__move_backward_trivialclB7v160006IP8CustomerS3_Li0EEENS_4pairIPT_PT0_EES6_S6_S8_, symObjAddr: 0x7018, symBinAddr: 0x100008044, symSize: 0x48 }
  - { offsetInCU: 0x14F4D, offset: 0x14F4D, size: 0x8, addend: 0x0, symName: __ZNSt3__14pairIPP8CustomerS3_EC1B7v160006IRS3_S6_LPv0EEEOT_OT0_, symObjAddr: 0x712C, symBinAddr: 0x100008158, symSize: 0x3C }
  - { offsetInCU: 0x14FAB, offset: 0x14FAB, size: 0x8, addend: 0x0, symName: __ZNSt3__14pairIPP8CustomerS3_EC2B7v160006IRS3_S6_LPv0EEEOT_OT0_, symObjAddr: 0x7168, symBinAddr: 0x100008194, symSize: 0x34 }
  - { offsetInCU: 0x15009, offset: 0x15009, size: 0x8, addend: 0x0, symName: __ZNSt3__114__split_bufferIP8CustomerRNS_9allocatorIS2_EEEC2EmmS5_, symObjAddr: 0x719C, symBinAddr: 0x1000081C8, symSize: 0xD4 }
  - { offsetInCU: 0x1507D, offset: 0x1507D, size: 0x8, addend: 0x0, symName: __ZNSt3__117__compressed_pairIPP8CustomerRNS_9allocatorIS2_EEEC1B7v160006IDnS6_EEOT_OT0_, symObjAddr: 0x7270, symBinAddr: 0x10000829C, symSize: 0x3C }
  - { offsetInCU: 0x150D5, offset: 0x150D5, size: 0x8, addend: 0x0, symName: __ZNSt3__117__compressed_pairIPP8CustomerRNS_9allocatorIS2_EEEC2B7v160006IDnS6_EEOT_OT0_, symObjAddr: 0x72EC, symBinAddr: 0x100008318, symSize: 0x48 }
  - { offsetInCU: 0x1512D, offset: 0x1512D, size: 0x8, addend: 0x0, symName: __ZNSt3__122__compressed_pair_elemIRNS_9allocatorIP8CustomerEELi1ELb0EEC2B7v160006IS5_vEEOT_, symObjAddr: 0x7334, symBinAddr: 0x100008360, symSize: 0x20 }
  - { offsetInCU: 0x1516F, offset: 0x1516F, size: 0x8, addend: 0x0, symName: __ZNSt3__19allocatorIP8CustomerE8allocateB7v160006Em, symObjAddr: 0x7354, symBinAddr: 0x100008380, symSize: 0x58 }
  - { offsetInCU: 0x151AD, offset: 0x151AD, size: 0x8, addend: 0x0, symName: __ZNSt3__116allocator_traitsINS_9allocatorIP8CustomerEEE8max_sizeB7v160006IS4_vEEmRKS4_, symObjAddr: 0x73AC, symBinAddr: 0x1000083D8, symSize: 0x24 }
  - { offsetInCU: 0x151DB, offset: 0x151DB, size: 0x8, addend: 0x0, symName: __ZNKSt3__19allocatorIP8CustomerE8max_sizeB7v160006Ev, symObjAddr: 0x73D0, symBinAddr: 0x1000083FC, symSize: 0x14 }
  - { offsetInCU: 0x15201, offset: 0x15201, size: 0x8, addend: 0x0, symName: __ZNSt3__117__compressed_pairIPP8CustomerNS_9allocatorIS2_EEE5firstB7v160006Ev, symObjAddr: 0x73E4, symBinAddr: 0x100008410, symSize: 0x24 }
  - { offsetInCU: 0x15227, offset: 0x15227, size: 0x8, addend: 0x0, symName: __ZNSt3__122__compressed_pair_elemIPP8CustomerLi0ELb0EE5__getB7v160006Ev, symObjAddr: 0x7408, symBinAddr: 0x100008434, symSize: 0x14 }
  - { offsetInCU: 0x1524D, offset: 0x1524D, size: 0x8, addend: 0x0, symName: __ZNSt3__117__compressed_pairIPP8CustomerRNS_9allocatorIS2_EEE5firstB7v160006Ev, symObjAddr: 0x741C, symBinAddr: 0x100008448, symSize: 0x24 }
  - { offsetInCU: 0x15273, offset: 0x15273, size: 0x8, addend: 0x0, symName: __ZNSt3__114__split_bufferIP8CustomerRNS_9allocatorIS2_EEED2Ev, symObjAddr: 0x7440, symBinAddr: 0x10000846C, symSize: 0x8C }
  - { offsetInCU: 0x1529F, offset: 0x1529F, size: 0x8, addend: 0x0, symName: __ZNSt3__114__split_bufferIP8CustomerRNS_9allocatorIS2_EEE5clearB7v160006Ev, symObjAddr: 0x74CC, symBinAddr: 0x1000084F8, symSize: 0x28 }
  - { offsetInCU: 0x152C5, offset: 0x152C5, size: 0x8, addend: 0x0, symName: __ZNKSt3__114__split_bufferIP8CustomerRNS_9allocatorIS2_EEE8capacityB7v160006Ev, symObjAddr: 0x74F4, symBinAddr: 0x100008520, symSize: 0x40 }
  - { offsetInCU: 0x152EB, offset: 0x152EB, size: 0x8, addend: 0x0, symName: __ZNSt3__114__split_bufferIP8CustomerRNS_9allocatorIS2_EEE17__destruct_at_endB7v160006EPS2_, symObjAddr: 0x7534, symBinAddr: 0x100008560, symSize: 0x2C }
  - { offsetInCU: 0x1531F, offset: 0x1531F, size: 0x8, addend: 0x0, symName: __ZNSt3__114__split_bufferIP8CustomerRNS_9allocatorIS2_EEE17__destruct_at_endB7v160006EPS2_NS_17integral_constantIbLb0EEE, symObjAddr: 0x7560, symBinAddr: 0x10000858C, symSize: 0x80 }
  - { offsetInCU: 0x1535E, offset: 0x1535E, size: 0x8, addend: 0x0, symName: __ZNKSt3__114__split_bufferIP8CustomerRNS_9allocatorIS2_EEE9__end_capB7v160006Ev, symObjAddr: 0x75E0, symBinAddr: 0x10000860C, symSize: 0x28 }
  - { offsetInCU: 0x15384, offset: 0x15384, size: 0x8, addend: 0x0, symName: __ZNKSt3__117__compressed_pairIPP8CustomerRNS_9allocatorIS2_EEE5firstB7v160006Ev, symObjAddr: 0x7608, symBinAddr: 0x100008634, symSize: 0x24 }
  - { offsetInCU: 0x153AA, offset: 0x153AA, size: 0x8, addend: 0x0, symName: __ZNSt3__116__deque_iteratorI8CustomerPS1_RS1_PS2_lLl512EEpLB7v160006El, symObjAddr: 0x762C, symBinAddr: 0x100008658, symSize: 0x110 }
  - { offsetInCU: 0x153FD, offset: 0x153FD, size: 0x8, addend: 0x0, symName: __ZNSt3__15dequeI8CustomerNS_9allocatorIS1_EEE13__deque_rangeC2B7v160006ENS_16__deque_iteratorIS1_PS1_RS1_PS7_lLl512EEESA_, symObjAddr: 0x773C, symBinAddr: 0x100008768, symSize: 0x34 }
  - { offsetInCU: 0x15445, offset: 0x15445, size: 0x8, addend: 0x0, symName: __ZNSt3__15dequeI8CustomerNS_9allocatorIS1_EEE19__deque_block_rangeC1B7v160006EPS1_S6_, symObjAddr: 0x77D0, symBinAddr: 0x1000087FC, symSize: 0x3C }
  - { offsetInCU: 0x1548D, offset: 0x1548D, size: 0x8, addend: 0x0, symName: __ZNSt3__15dequeI8CustomerNS_9allocatorIS1_EEE19__deque_block_rangeC2B7v160006EPS1_S6_, symObjAddr: 0x780C, symBinAddr: 0x100008838, symSize: 0x2C }
  - { offsetInCU: 0x154D5, offset: 0x154D5, size: 0x8, addend: 0x0, symName: __ZNSt3__15dequeI8CustomerNS_9allocatorIS1_EEE21_ConstructTransactionC2B7v160006EPS4_RNS4_19__deque_block_rangeE, symObjAddr: 0x7838, symBinAddr: 0x100008864, symSize: 0x48 }
  - { offsetInCU: 0x1551D, offset: 0x1551D, size: 0x8, addend: 0x0, symName: __ZNSt3__15dequeI8CustomerNS_9allocatorIS1_EEE21_ConstructTransactionD2B7v160006Ev, symObjAddr: 0x7880, symBinAddr: 0x1000088AC, symSize: 0x5C }
  - { offsetInCU: 0x15547, offset: 0x15547, size: 0x8, addend: 0x0, symName: __ZNKSt3__114__split_bufferIP8CustomerNS_9allocatorIS2_EEE5beginB7v160006Ev, symObjAddr: 0x78DC, symBinAddr: 0x100008908, symSize: 0x18 }
  - { offsetInCU: 0x1556D, offset: 0x1556D, size: 0x8, addend: 0x0, symName: __ZNSt3__116__deque_iteratorI8CustomerPKS1_RS2_PKS3_lLl512EEC1B7v160006ES6_S3_, symObjAddr: 0x78F4, symBinAddr: 0x100008920, symSize: 0x3C }
  - { offsetInCU: 0x155B5, offset: 0x155B5, size: 0x8, addend: 0x0, symName: __ZNSt3__116__deque_iteratorI8CustomerPKS1_RS2_PKS3_lLl512EEC2B7v160006ES6_S3_, symObjAddr: 0x7930, symBinAddr: 0x10000895C, symSize: 0x2C }
  - { offsetInCU: 0x155FD, offset: 0x155FD, size: 0x8, addend: 0x0, symName: __ZNSt3__16vectorI7CounterNS_9allocatorIS1_EEE21_ConstructTransactionD2B7v160006Ev, symObjAddr: 0x795C, symBinAddr: 0x100008988, symSize: 0x20 }
  - { offsetInCU: 0x15627, offset: 0x15627, size: 0x8, addend: 0x0, symName: __ZNKSt3__16vectorI7CounterNS_9allocatorIS1_EEE11__recommendB7v160006Em, symObjAddr: 0x797C, symBinAddr: 0x1000089A8, symSize: 0xB4 }
  - { offsetInCU: 0x1567B, offset: 0x1567B, size: 0x8, addend: 0x0, symName: __ZNSt3__114__split_bufferI7CounterRNS_9allocatorIS1_EEEC1EmmS4_, symObjAddr: 0x7A30, symBinAddr: 0x100008A5C, symSize: 0x44 }
  - { offsetInCU: 0x156D1, offset: 0x156D1, size: 0x8, addend: 0x0, symName: __ZNSt3__114__split_bufferI7CounterRNS_9allocatorIS1_EEED1Ev, symObjAddr: 0x7B8C, symBinAddr: 0x100008BB8, symSize: 0x2C }
  - { offsetInCU: 0x156FD, offset: 0x156FD, size: 0x8, addend: 0x0, symName: __ZNKSt3__16vectorI7CounterNS_9allocatorIS1_EEE8max_sizeEv, symObjAddr: 0x7BB8, symBinAddr: 0x100008BE4, symSize: 0x60 }
  - { offsetInCU: 0x15724, offset: 0x15724, size: 0x8, addend: 0x0, symName: __ZNKSt3__16vectorI7CounterNS_9allocatorIS1_EEE20__throw_length_errorB7v160006Ev, symObjAddr: 0x7C18, symBinAddr: 0x100008C44, symSize: 0x1C }
  - { offsetInCU: 0x15754, offset: 0x15754, size: 0x8, addend: 0x0, symName: __ZNSt3__116allocator_traitsINS_9allocatorI7CounterEEE8max_sizeB7v160006IS3_vEEmRKS3_, symObjAddr: 0x7C34, symBinAddr: 0x100008C60, symSize: 0x24 }
  - { offsetInCU: 0x15782, offset: 0x15782, size: 0x8, addend: 0x0, symName: __ZNKSt3__16vectorI7CounterNS_9allocatorIS1_EEE7__allocB7v160006Ev, symObjAddr: 0x7C58, symBinAddr: 0x100008C84, symSize: 0x28 }
  - { offsetInCU: 0x157A8, offset: 0x157A8, size: 0x8, addend: 0x0, symName: __ZNKSt3__19allocatorI7CounterE8max_sizeB7v160006Ev, symObjAddr: 0x7C80, symBinAddr: 0x100008CAC, symSize: 0x14 }
  - { offsetInCU: 0x157CE, offset: 0x157CE, size: 0x8, addend: 0x0, symName: __ZNKSt3__117__compressed_pairIP7CounterNS_9allocatorIS1_EEE6secondB7v160006Ev, symObjAddr: 0x7C94, symBinAddr: 0x100008CC0, symSize: 0x24 }
  - { offsetInCU: 0x157F4, offset: 0x157F4, size: 0x8, addend: 0x0, symName: __ZNKSt3__122__compressed_pair_elemINS_9allocatorI7CounterEELi1ELb1EE5__getB7v160006Ev, symObjAddr: 0x7CB8, symBinAddr: 0x100008CE4, symSize: 0x14 }
  - { offsetInCU: 0x1581A, offset: 0x1581A, size: 0x8, addend: 0x0, symName: __ZNSt3__114__split_bufferI7CounterRNS_9allocatorIS1_EEEC2EmmS4_, symObjAddr: 0x7CCC, symBinAddr: 0x100008CF8, symSize: 0xD4 }
  - { offsetInCU: 0x1588E, offset: 0x1588E, size: 0x8, addend: 0x0, symName: __ZNSt3__117__compressed_pairIP7CounterRNS_9allocatorIS1_EEEC1B7v160006IDnS5_EEOT_OT0_, symObjAddr: 0x7DA0, symBinAddr: 0x100008DCC, symSize: 0x3C }
  - { offsetInCU: 0x158E6, offset: 0x158E6, size: 0x8, addend: 0x0, symName: __ZNSt3__114__split_bufferI7CounterRNS_9allocatorIS1_EEE7__allocB7v160006Ev, symObjAddr: 0x7E1C, symBinAddr: 0x100008E48, symSize: 0x28 }
  - { offsetInCU: 0x1590C, offset: 0x1590C, size: 0x8, addend: 0x0, symName: __ZNSt3__114__split_bufferI7CounterRNS_9allocatorIS1_EEE9__end_capB7v160006Ev, symObjAddr: 0x7E44, symBinAddr: 0x100008E70, symSize: 0x28 }
  - { offsetInCU: 0x15932, offset: 0x15932, size: 0x8, addend: 0x0, symName: __ZNSt3__117__compressed_pairIP7CounterRNS_9allocatorIS1_EEEC2B7v160006IDnS5_EEOT_OT0_, symObjAddr: 0x7E6C, symBinAddr: 0x100008E98, symSize: 0x48 }
  - { offsetInCU: 0x1598A, offset: 0x1598A, size: 0x8, addend: 0x0, symName: __ZNSt3__122__compressed_pair_elemIRNS_9allocatorI7CounterEELi1ELb0EEC2B7v160006IS4_vEEOT_, symObjAddr: 0x7EB4, symBinAddr: 0x100008EE0, symSize: 0x20 }
  - { offsetInCU: 0x159CC, offset: 0x159CC, size: 0x8, addend: 0x0, symName: __ZNSt3__19allocatorI7CounterE8allocateB7v160006Em, symObjAddr: 0x7ED4, symBinAddr: 0x100008F00, symSize: 0x58 }
  - { offsetInCU: 0x15A00, offset: 0x15A00, size: 0x8, addend: 0x0, symName: __ZNSt3__117__compressed_pairIP7CounterRNS_9allocatorIS1_EEE6secondB7v160006Ev, symObjAddr: 0x7F2C, symBinAddr: 0x100008F58, symSize: 0x28 }
  - { offsetInCU: 0x15A26, offset: 0x15A26, size: 0x8, addend: 0x0, symName: __ZNSt3__122__compressed_pair_elemIRNS_9allocatorI7CounterEELi1ELb0EE5__getB7v160006Ev, symObjAddr: 0x7F54, symBinAddr: 0x100008F80, symSize: 0x18 }
  - { offsetInCU: 0x15A4C, offset: 0x15A4C, size: 0x8, addend: 0x0, symName: __ZNSt3__117__compressed_pairIP7CounterRNS_9allocatorIS1_EEE5firstB7v160006Ev, symObjAddr: 0x7F6C, symBinAddr: 0x100008F98, symSize: 0x24 }
  - { offsetInCU: 0x15A72, offset: 0x15A72, size: 0x8, addend: 0x0, symName: __ZNSt3__116reverse_iteratorIP7CounterEC1B7v160006ES2_, symObjAddr: 0x80BC, symBinAddr: 0x1000090E8, symSize: 0x34 }
  - { offsetInCU: 0x15AAA, offset: 0x15AAA, size: 0x8, addend: 0x0, symName: __ZNKSt3__116reverse_iteratorIP7CounterE4baseB7v160006Ev, symObjAddr: 0x80F0, symBinAddr: 0x10000911C, symSize: 0x18 }
  - { offsetInCU: 0x15AD0, offset: 0x15AD0, size: 0x8, addend: 0x0, symName: __ZNKSt3__16vectorI7CounterNS_9allocatorIS1_EEE14__annotate_newB7v160006Em, symObjAddr: 0x8144, symBinAddr: 0x100009170, symSize: 0xAC }
  - { offsetInCU: 0x15B05, offset: 0x15B05, size: 0x8, addend: 0x0, symName: __ZNSt3__129_AllocatorDestroyRangeReverseINS_9allocatorI7CounterEENS_16reverse_iteratorIPS2_EEEC1B7v160006ERS3_RS6_S9_, symObjAddr: 0x824C, symBinAddr: 0x100009278, symSize: 0x44 }
  - { offsetInCU: 0x15B61, offset: 0x15B61, size: 0x8, addend: 0x0, symName: __ZNSt3__116allocator_traitsINS_9allocatorI7CounterEEE9constructB7v160006IS2_JS2_EvEEvRS3_PT_DpOT0_, symObjAddr: 0x82D8, symBinAddr: 0x100009304, symSize: 0x34 }
  - { offsetInCU: 0x15BB8, offset: 0x15BB8, size: 0x8, addend: 0x0, symName: __ZNKSt3__116reverse_iteratorIP7CounterEdeB7v160006Ev, symObjAddr: 0x8330, symBinAddr: 0x10000935C, symSize: 0x28 }
  - { offsetInCU: 0x15BEC, offset: 0x15BEC, size: 0x8, addend: 0x0, symName: __ZNSt3__116reverse_iteratorIP7CounterEppB7v160006Ev, symObjAddr: 0x8358, symBinAddr: 0x100009384, symSize: 0x20 }
  - { offsetInCU: 0x15C12, offset: 0x15C12, size: 0x8, addend: 0x0, symName: __ZNSt3__128__exception_guard_exceptionsINS_29_AllocatorDestroyRangeReverseINS_9allocatorI7CounterEENS_16reverse_iteratorIPS3_EEEEE10__completeB7v160006Ev, symObjAddr: 0x8378, symBinAddr: 0x1000093A4, symSize: 0x1C }
  - { offsetInCU: 0x15C38, offset: 0x15C38, size: 0x8, addend: 0x0, symName: __ZNSt3__128__exception_guard_exceptionsINS_29_AllocatorDestroyRangeReverseINS_9allocatorI7CounterEENS_16reverse_iteratorIPS3_EEEEED1B7v160006Ev, symObjAddr: 0x8394, symBinAddr: 0x1000093C0, symSize: 0x2C }
  - { offsetInCU: 0x15C62, offset: 0x15C62, size: 0x8, addend: 0x0, symName: __ZNSt3__128__exception_guard_exceptionsINS_29_AllocatorDestroyRangeReverseINS_9allocatorI7CounterEENS_16reverse_iteratorIPS3_EEEEEC1B7v160006ES8_, symObjAddr: 0x83C0, symBinAddr: 0x1000093EC, symSize: 0x34 }
  - { offsetInCU: 0x15C9B, offset: 0x15C9B, size: 0x8, addend: 0x0, symName: __ZNSt3__128__exception_guard_exceptionsINS_29_AllocatorDestroyRangeReverseINS_9allocatorI7CounterEENS_16reverse_iteratorIPS3_EEEEEC2B7v160006ES8_, symObjAddr: 0x83F4, symBinAddr: 0x100009420, symSize: 0x30 }
  - { offsetInCU: 0x15CD4, offset: 0x15CD4, size: 0x8, addend: 0x0, symName: __ZNSt3__129_AllocatorDestroyRangeReverseINS_9allocatorI7CounterEENS_16reverse_iteratorIPS2_EEEC2B7v160006ERS3_RS6_S9_, symObjAddr: 0x8424, symBinAddr: 0x100009450, symSize: 0x38 }
  - { offsetInCU: 0x15D2B, offset: 0x15D2B, size: 0x8, addend: 0x0, symName: __ZNSt3__19allocatorI7CounterE9constructB7v160006IS1_JS1_EEEvPT_DpOT0_, symObjAddr: 0x845C, symBinAddr: 0x100009488, symSize: 0x30 }
  - { offsetInCU: 0x15D81, offset: 0x15D81, size: 0x8, addend: 0x0, symName: __ZN7CounterC1EOS_, symObjAddr: 0x848C, symBinAddr: 0x1000094B8, symSize: 0x34 }
  - { offsetInCU: 0x15DB6, offset: 0x15DB6, size: 0x8, addend: 0x0, symName: __ZN7CounterC2EOS_, symObjAddr: 0x84C0, symBinAddr: 0x1000094EC, symSize: 0x54 }
  - { offsetInCU: 0x15DEB, offset: 0x15DEB, size: 0x8, addend: 0x0, symName: __ZNSt3__15dequeI8CustomerNS_9allocatorIS1_EEEC1EOS4_, symObjAddr: 0x8514, symBinAddr: 0x100009540, symSize: 0x34 }
  - { offsetInCU: 0x15E26, offset: 0x15E26, size: 0x8, addend: 0x0, symName: __ZNSt3__15dequeI8CustomerNS_9allocatorIS1_EEEC2EOS4_, symObjAddr: 0x8548, symBinAddr: 0x100009574, symSize: 0x68 }
  - { offsetInCU: 0x15E61, offset: 0x15E61, size: 0x8, addend: 0x0, symName: __ZNSt3__114__split_bufferIP8CustomerNS_9allocatorIS2_EEEC1EOS5_, symObjAddr: 0x85B0, symBinAddr: 0x1000095DC, symSize: 0x34 }
  - { offsetInCU: 0x15E9B, offset: 0x15E9B, size: 0x8, addend: 0x0, symName: __ZNSt3__114__split_bufferIP8CustomerNS_9allocatorIS2_EEEC2EOS5_, symObjAddr: 0x85E4, symBinAddr: 0x100009610, symSize: 0x84 }
  - { offsetInCU: 0x15EDA, offset: 0x15EDA, size: 0x8, addend: 0x0, symName: __ZNSt3__119__to_address_helperINS_16reverse_iteratorIP7CounterEEvE6__callB7v160006ERKS4_, symObjAddr: 0x8668, symBinAddr: 0x100009694, symSize: 0x38 }
  - { offsetInCU: 0x15EFD, offset: 0x15EFD, size: 0x8, addend: 0x0, symName: __ZNKSt3__116reverse_iteratorIP7CounterEptB7v160006Ev, symObjAddr: 0x86A0, symBinAddr: 0x1000096CC, symSize: 0x24 }
  - { offsetInCU: 0x15F23, offset: 0x15F23, size: 0x8, addend: 0x0, symName: __ZNSt3__128__exception_guard_exceptionsINS_29_AllocatorDestroyRangeReverseINS_9allocatorI7CounterEENS_16reverse_iteratorIPS3_EEEEED2B7v160006Ev, symObjAddr: 0x86C4, symBinAddr: 0x1000096F0, symSize: 0x50 }
  - { offsetInCU: 0x15F4D, offset: 0x15F4D, size: 0x8, addend: 0x0, symName: __ZNKSt3__129_AllocatorDestroyRangeReverseINS_9allocatorI7CounterEENS_16reverse_iteratorIPS2_EEEclB7v160006Ev, symObjAddr: 0x8714, symBinAddr: 0x100009740, symSize: 0xB4 }
  - { offsetInCU: 0x15F74, offset: 0x15F74, size: 0x8, addend: 0x0, symName: __ZNSt3__116reverse_iteratorINS0_IP7CounterEEEC1B7v160006ES3_, symObjAddr: 0x8838, symBinAddr: 0x100009864, symSize: 0x3C }
  - { offsetInCU: 0x15FAC, offset: 0x15FAC, size: 0x8, addend: 0x0, symName: __ZNSt3__116reverse_iteratorINS0_IP7CounterEEEppB7v160006Ev, symObjAddr: 0x88F8, symBinAddr: 0x100009924, symSize: 0x30 }
  - { offsetInCU: 0x15FD2, offset: 0x15FD2, size: 0x8, addend: 0x0, symName: __ZNKSt3__116reverse_iteratorINS0_IP7CounterEEE4baseB7v160006Ev, symObjAddr: 0x8928, symBinAddr: 0x100009954, symSize: 0x24 }
  - { offsetInCU: 0x15FFD, offset: 0x15FFD, size: 0x8, addend: 0x0, symName: __ZNSt3__119__to_address_helperINS_16reverse_iteratorINS1_IP7CounterEEEEvE6__callB7v160006ERKS5_, symObjAddr: 0x894C, symBinAddr: 0x100009978, symSize: 0x38 }
  - { offsetInCU: 0x16020, offset: 0x16020, size: 0x8, addend: 0x0, symName: __ZNKSt3__116reverse_iteratorINS0_IP7CounterEEEptB7v160006Ev, symObjAddr: 0x8984, symBinAddr: 0x1000099B0, symSize: 0x24 }
  - { offsetInCU: 0x16046, offset: 0x16046, size: 0x8, addend: 0x0, symName: __ZNKSt3__116reverse_iteratorINS0_IP7CounterEEEdeB7v160006Ev, symObjAddr: 0x89A8, symBinAddr: 0x1000099D4, symSize: 0x34 }
  - { offsetInCU: 0x1607A, offset: 0x1607A, size: 0x8, addend: 0x0, symName: __ZNSt3__116reverse_iteratorIP7CounterEmmB7v160006Ev, symObjAddr: 0x89DC, symBinAddr: 0x100009A08, symSize: 0x20 }
  - { offsetInCU: 0x160A0, offset: 0x160A0, size: 0x8, addend: 0x0, symName: __ZNSt3__116reverse_iteratorINS0_IP7CounterEEEC2B7v160006ES3_, symObjAddr: 0x89FC, symBinAddr: 0x100009A28, symSize: 0x2C }
  - { offsetInCU: 0x160D8, offset: 0x160D8, size: 0x8, addend: 0x0, symName: __ZNSt3__116reverse_iteratorIP7CounterEC2B7v160006ES2_, symObjAddr: 0x8A28, symBinAddr: 0x100009A54, symSize: 0x28 }
  - { offsetInCU: 0x16110, offset: 0x16110, size: 0x8, addend: 0x0, symName: __ZNSt3__114__split_bufferI7CounterRNS_9allocatorIS1_EEED2Ev, symObjAddr: 0x8A50, symBinAddr: 0x100009A7C, symSize: 0x8C }
  - { offsetInCU: 0x1613C, offset: 0x1613C, size: 0x8, addend: 0x0, symName: __ZNSt3__114__split_bufferI7CounterRNS_9allocatorIS1_EEE5clearB7v160006Ev, symObjAddr: 0x8ADC, symBinAddr: 0x100009B08, symSize: 0x28 }
  - { offsetInCU: 0x16162, offset: 0x16162, size: 0x8, addend: 0x0, symName: __ZNKSt3__114__split_bufferI7CounterRNS_9allocatorIS1_EEE8capacityB7v160006Ev, symObjAddr: 0x8B04, symBinAddr: 0x100009B30, symSize: 0x40 }
  - { offsetInCU: 0x16188, offset: 0x16188, size: 0x8, addend: 0x0, symName: __ZNSt3__114__split_bufferI7CounterRNS_9allocatorIS1_EEE17__destruct_at_endB7v160006EPS1_, symObjAddr: 0x8B44, symBinAddr: 0x100009B70, symSize: 0x2C }
  - { offsetInCU: 0x161BC, offset: 0x161BC, size: 0x8, addend: 0x0, symName: __ZNSt3__114__split_bufferI7CounterRNS_9allocatorIS1_EEE17__destruct_at_endB7v160006EPS1_NS_17integral_constantIbLb0EEE, symObjAddr: 0x8B70, symBinAddr: 0x100009B9C, symSize: 0x80 }
  - { offsetInCU: 0x161FB, offset: 0x161FB, size: 0x8, addend: 0x0, symName: __ZNKSt3__114__split_bufferI7CounterRNS_9allocatorIS1_EEE9__end_capB7v160006Ev, symObjAddr: 0x8BF0, symBinAddr: 0x100009C1C, symSize: 0x28 }
  - { offsetInCU: 0x16221, offset: 0x16221, size: 0x8, addend: 0x0, symName: __ZNKSt3__117__compressed_pairIP7CounterRNS_9allocatorIS1_EEE5firstB7v160006Ev, symObjAddr: 0x8C18, symBinAddr: 0x100009C44, symSize: 0x24 }
  - { offsetInCU: 0x16247, offset: 0x16247, size: 0x8, addend: 0x0, symName: __ZNSt3__111char_traitsIcE6lengthEPKc, symObjAddr: 0x8E28, symBinAddr: 0x100009E54, symSize: 0x34 }
  - { offsetInCU: 0x16288, offset: 0x16288, size: 0x8, addend: 0x0, symName: __ZNKSt3__113basic_ostreamIcNS_11char_traitsIcEEE6sentrycvbB7v160006Ev, symObjAddr: 0x8E5C, symBinAddr: 0x100009E88, symSize: 0x1C }
  - { offsetInCU: 0x162AE, offset: 0x162AE, size: 0x8, addend: 0x0, symName: __ZNSt3__119ostreambuf_iteratorIcNS_11char_traitsIcEEEC1B7v160006ERNS_13basic_ostreamIcS2_EE, symObjAddr: 0x90B8, symBinAddr: 0x10000A0E4, symSize: 0x34 }
  - { offsetInCU: 0x162E6, offset: 0x162E6, size: 0x8, addend: 0x0, symName: __ZNKSt3__18ios_base5flagsB7v160006Ev, symObjAddr: 0x90EC, symBinAddr: 0x10000A118, symSize: 0x18 }
  - { offsetInCU: 0x1630E, offset: 0x1630E, size: 0x8, addend: 0x0, symName: __ZNKSt3__19basic_iosIcNS_11char_traitsIcEEE4fillB7v160006Ev, symObjAddr: 0x9104, symBinAddr: 0x10000A130, symSize: 0x64 }
  - { offsetInCU: 0x16335, offset: 0x16335, size: 0x8, addend: 0x0, symName: __ZNKSt3__119ostreambuf_iteratorIcNS_11char_traitsIcEEE6failedB7v160006Ev, symObjAddr: 0x9168, symBinAddr: 0x10000A194, symSize: 0x24 }
  - { offsetInCU: 0x1635B, offset: 0x1635B, size: 0x8, addend: 0x0, symName: __ZNSt3__19basic_iosIcNS_11char_traitsIcEEE8setstateB7v160006Ej, symObjAddr: 0x918C, symBinAddr: 0x10000A1B8, symSize: 0x2C }
  - { offsetInCU: 0x16390, offset: 0x16390, size: 0x8, addend: 0x0, symName: __ZNKSt3__18ios_base5widthB7v160006Ev, symObjAddr: 0x91B8, symBinAddr: 0x10000A1E4, symSize: 0x18 }
  - { offsetInCU: 0x163B8, offset: 0x163B8, size: 0x8, addend: 0x0, symName: __ZNSt3__115basic_streambufIcNS_11char_traitsIcEEE5sputnB7v160006EPKcl, symObjAddr: 0x91D0, symBinAddr: 0x10000A1FC, symSize: 0x3C }
  - { offsetInCU: 0x163FA, offset: 0x163FA, size: 0x8, addend: 0x0, symName: __ZNSt3__112basic_stringIcNS_11char_traitsIcEENS_9allocatorIcEEEC1B7v160006Emc, symObjAddr: 0x920C, symBinAddr: 0x10000A238, symSize: 0x3C }
  - { offsetInCU: 0x16442, offset: 0x16442, size: 0x8, addend: 0x0, symName: __ZNKSt3__112basic_stringIcNS_11char_traitsIcEENS_9allocatorIcEEE4dataB7v160006Ev, symObjAddr: 0x9248, symBinAddr: 0x10000A274, symSize: 0x28 }
  - { offsetInCU: 0x16468, offset: 0x16468, size: 0x8, addend: 0x0, symName: __ZNSt3__18ios_base5widthB7v160006El, symObjAddr: 0x9270, symBinAddr: 0x10000A29C, symSize: 0x2C }
  - { offsetInCU: 0x164AE, offset: 0x164AE, size: 0x8, addend: 0x0, symName: __ZNSt3__112basic_stringIcNS_11char_traitsIcEENS_9allocatorIcEEEC2B7v160006Emc, symObjAddr: 0x929C, symBinAddr: 0x10000A2C8, symSize: 0x54 }
  - { offsetInCU: 0x164F6, offset: 0x164F6, size: 0x8, addend: 0x0, symName: __ZNSt3__117__compressed_pairINS_12basic_stringIcNS_11char_traitsIcEENS_9allocatorIcEEE5__repES5_EC1B7v160006INS_18__default_init_tagESA_EEOT_OT0_, symObjAddr: 0x92F0, symBinAddr: 0x10000A31C, symSize: 0x3C }
  - { offsetInCU: 0x1654E, offset: 0x1654E, size: 0x8, addend: 0x0, symName: __ZNSt3__117__compressed_pairINS_12basic_stringIcNS_11char_traitsIcEENS_9allocatorIcEEE5__repES5_EC2B7v160006INS_18__default_init_tagESA_EEOT_OT0_, symObjAddr: 0x933C, symBinAddr: 0x10000A368, symSize: 0x3C }
  - { offsetInCU: 0x165A6, offset: 0x165A6, size: 0x8, addend: 0x0, symName: __ZNSt3__122__compressed_pair_elemINS_12basic_stringIcNS_11char_traitsIcEENS_9allocatorIcEEE5__repELi0ELb0EEC2B7v160006ENS_18__default_init_tagE, symObjAddr: 0x9378, symBinAddr: 0x10000A3A4, symSize: 0x14 }
  - { offsetInCU: 0x165DA, offset: 0x165DA, size: 0x8, addend: 0x0, symName: __ZNSt3__122__compressed_pair_elemINS_9allocatorIcEELi1ELb1EEC2B7v160006ENS_18__default_init_tagE, symObjAddr: 0x938C, symBinAddr: 0x10000A3B8, symSize: 0x2C }
  - { offsetInCU: 0x1660E, offset: 0x1660E, size: 0x8, addend: 0x0, symName: __ZNSt3__19allocatorIcEC2B7v160006Ev, symObjAddr: 0x93B8, symBinAddr: 0x10000A3E4, symSize: 0x2C }
  - { offsetInCU: 0x16638, offset: 0x16638, size: 0x8, addend: 0x0, symName: __ZNSt3__116__non_trivial_ifILb1ENS_9allocatorIcEEEC2B7v160006Ev, symObjAddr: 0x93E4, symBinAddr: 0x10000A410, symSize: 0x14 }
  - { offsetInCU: 0x16662, offset: 0x16662, size: 0x8, addend: 0x0, symName: __ZNKSt3__112basic_stringIcNS_11char_traitsIcEENS_9allocatorIcEEE13__get_pointerB7v160006Ev, symObjAddr: 0x940C, symBinAddr: 0x10000A438, symSize: 0x54 }
  - { offsetInCU: 0x16688, offset: 0x16688, size: 0x8, addend: 0x0, symName: __ZNKSt3__112basic_stringIcNS_11char_traitsIcEENS_9allocatorIcEEE9__is_longB7v160006Ev, symObjAddr: 0x9460, symBinAddr: 0x10000A48C, symSize: 0x38 }
  - { offsetInCU: 0x166AE, offset: 0x166AE, size: 0x8, addend: 0x0, symName: __ZNKSt3__112basic_stringIcNS_11char_traitsIcEENS_9allocatorIcEEE18__get_long_pointerB7v160006Ev, symObjAddr: 0x9498, symBinAddr: 0x10000A4C4, symSize: 0x28 }
  - { offsetInCU: 0x166D4, offset: 0x166D4, size: 0x8, addend: 0x0, symName: __ZNKSt3__112basic_stringIcNS_11char_traitsIcEENS_9allocatorIcEEE19__get_short_pointerB7v160006Ev, symObjAddr: 0x94C0, symBinAddr: 0x10000A4EC, symSize: 0x28 }
  - { offsetInCU: 0x166FA, offset: 0x166FA, size: 0x8, addend: 0x0, symName: __ZNKSt3__117__compressed_pairINS_12basic_stringIcNS_11char_traitsIcEENS_9allocatorIcEEE5__repES5_E5firstB7v160006Ev, symObjAddr: 0x94E8, symBinAddr: 0x10000A514, symSize: 0x24 }
  - { offsetInCU: 0x16720, offset: 0x16720, size: 0x8, addend: 0x0, symName: __ZNKSt3__122__compressed_pair_elemINS_12basic_stringIcNS_11char_traitsIcEENS_9allocatorIcEEE5__repELi0ELb0EE5__getB7v160006Ev, symObjAddr: 0x950C, symBinAddr: 0x10000A538, symSize: 0x14 }
  - { offsetInCU: 0x16746, offset: 0x16746, size: 0x8, addend: 0x0, symName: __ZNSt3__114pointer_traitsIPKcE10pointer_toB7v160006ERS1_, symObjAddr: 0x9520, symBinAddr: 0x10000A54C, symSize: 0x14 }
  - { offsetInCU: 0x16769, offset: 0x16769, size: 0x8, addend: 0x0, symName: __ZNSt3__119ostreambuf_iteratorIcNS_11char_traitsIcEEEC2B7v160006ERNS_13basic_ostreamIcS2_EE, symObjAddr: 0x9534, symBinAddr: 0x10000A560, symSize: 0x54 }
  - { offsetInCU: 0x167A1, offset: 0x167A1, size: 0x8, addend: 0x0, symName: __ZNKSt3__19basic_iosIcNS_11char_traitsIcEEE5rdbufB7v160006Ev, symObjAddr: 0x9588, symBinAddr: 0x10000A5B4, symSize: 0x24 }
  - { offsetInCU: 0x167C8, offset: 0x167C8, size: 0x8, addend: 0x0, symName: __ZNKSt3__18ios_base5rdbufB7v160006Ev, symObjAddr: 0x95AC, symBinAddr: 0x10000A5D8, symSize: 0x18 }
  - { offsetInCU: 0x167EE, offset: 0x167EE, size: 0x8, addend: 0x0, symName: __ZNSt3__111char_traitsIcE11eq_int_typeEii, symObjAddr: 0x95C4, symBinAddr: 0x10000A5F0, symSize: 0x28 }
  - { offsetInCU: 0x1681F, offset: 0x1681F, size: 0x8, addend: 0x0, symName: __ZNSt3__111char_traitsIcE3eofEv, symObjAddr: 0x95EC, symBinAddr: 0x10000A618, symSize: 0x8 }
  - { offsetInCU: 0x16833, offset: 0x16833, size: 0x8, addend: 0x0, symName: __ZNKSt3__19basic_iosIcNS_11char_traitsIcEEE5widenB7v160006Ec, symObjAddr: 0x95F4, symBinAddr: 0x10000A620, symSize: 0x84 }
  - { offsetInCU: 0x168A0, offset: 0x168A0, size: 0x8, addend: 0x0, symName: __ZNKSt3__15ctypeIcE5widenB7v160006Ec, symObjAddr: 0x96A4, symBinAddr: 0x10000A6D0, symSize: 0x38 }
  - { offsetInCU: 0x168D5, offset: 0x168D5, size: 0x8, addend: 0x0, symName: __ZNSt3__18ios_base8setstateB7v160006Ej, symObjAddr: 0x96DC, symBinAddr: 0x10000A708, symSize: 0x34 }
  - { offsetInCU: 0x1690B, offset: 0x1690B, size: 0x8, addend: 0x0, symName: __ZNSt3__16vectorI8CustomerNS_9allocatorIS1_EEE11__make_iterB7v160006EPS1_, symObjAddr: 0x9734, symBinAddr: 0x10000A760, symSize: 0x34 }
  - { offsetInCU: 0x16940, offset: 0x16940, size: 0x8, addend: 0x0, symName: __ZNSt3__111__wrap_iterIP8CustomerEC1B7v160006EPKvS2_, symObjAddr: 0x9768, symBinAddr: 0x10000A794, symSize: 0x3C }
  - { offsetInCU: 0x16986, offset: 0x16986, size: 0x8, addend: 0x0, symName: __ZNSt3__111__wrap_iterIP8CustomerEC2B7v160006EPKvS2_, symObjAddr: 0x97A4, symBinAddr: 0x10000A7D0, symSize: 0x24 }
  - { offsetInCU: 0x169CC, offset: 0x169CC, size: 0x8, addend: 0x0, symName: __ZNSt3__15dequeI8CustomerNS_9allocatorIS1_EEE19__add_back_capacityEv, symObjAddr: 0x97C8, symBinAddr: 0x10000A7F4, symSize: 0x314 }
  - { offsetInCU: 0x16A88, offset: 0x16A88, size: 0x8, addend: 0x0, symName: __ZNSt3__122__allocator_destructorINS_9allocatorI8CustomerEEEC1B7v160006ERS3_m, symObjAddr: 0x9ADC, symBinAddr: 0x10000AB08, symSize: 0x3C }
  - { offsetInCU: 0x16B37, offset: 0x16B37, size: 0x8, addend: 0x0, symName: __ZNSt3__110unique_ptrIP8CustomerNS_22__allocator_destructorINS_9allocatorIS1_EEEEEC1B7v160006ILb1EvEES2_NS_16__dependent_typeINS_27__unique_ptr_deleter_sfinaeIS6_EEXT_EE20__good_rval_ref_typeE, symObjAddr: 0x9B18, symBinAddr: 0x10000AB44, symSize: 0x3C }
  - { offsetInCU: 0x16B88, offset: 0x16B88, size: 0x8, addend: 0x0, symName: __ZNKSt3__110unique_ptrIP8CustomerNS_22__allocator_destructorINS_9allocatorIS1_EEEEE3getB7v160006Ev, symObjAddr: 0x9B54, symBinAddr: 0x10000AB80, symSize: 0x28 }
  - { offsetInCU: 0x16BAE, offset: 0x16BAE, size: 0x8, addend: 0x0, symName: __ZNSt3__110unique_ptrIP8CustomerNS_22__allocator_destructorINS_9allocatorIS1_EEEEE7releaseB7v160006Ev, symObjAddr: 0x9B7C, symBinAddr: 0x10000ABA8, symSize: 0x44 }
  - { offsetInCU: 0x16BE3, offset: 0x16BE3, size: 0x8, addend: 0x0, symName: __ZNSt3__110unique_ptrIP8CustomerNS_22__allocator_destructorINS_9allocatorIS1_EEEEED1B7v160006Ev, symObjAddr: 0x9BC0, symBinAddr: 0x10000ABEC, symSize: 0x2C }
  - { offsetInCU: 0x16C0D, offset: 0x16C0D, size: 0x8, addend: 0x0, symName: __ZNSt3__122__allocator_destructorINS_9allocatorI8CustomerEEEC2B7v160006ERS3_m, symObjAddr: 0x9BEC, symBinAddr: 0x10000AC18, symSize: 0x2C }
  - { offsetInCU: 0x16C53, offset: 0x16C53, size: 0x8, addend: 0x0, symName: __ZNSt3__110unique_ptrIP8CustomerNS_22__allocator_destructorINS_9allocatorIS1_EEEEEC2B7v160006ILb1EvEES2_NS_16__dependent_typeINS_27__unique_ptr_deleter_sfinaeIS6_EEXT_EE20__good_rval_ref_typeE, symObjAddr: 0x9C18, symBinAddr: 0x10000AC44, symSize: 0x48 }
  - { offsetInCU: 0x16CA4, offset: 0x16CA4, size: 0x8, addend: 0x0, symName: __ZNSt3__117__compressed_pairIP8CustomerNS_22__allocator_destructorINS_9allocatorIS1_EEEEEC1B7v160006IRS2_S6_EEOT_OT0_, symObjAddr: 0x9C60, symBinAddr: 0x10000AC8C, symSize: 0x3C }
  - { offsetInCU: 0x16CFC, offset: 0x16CFC, size: 0x8, addend: 0x0, symName: __ZNSt3__117__compressed_pairIP8CustomerNS_22__allocator_destructorINS_9allocatorIS1_EEEEEC2B7v160006IRS2_S6_EEOT_OT0_, symObjAddr: 0x9C9C, symBinAddr: 0x10000ACC8, symSize: 0x48 }
  - { offsetInCU: 0x16D54, offset: 0x16D54, size: 0x8, addend: 0x0, symName: __ZNSt3__122__compressed_pair_elemIP8CustomerLi0ELb0EEC2B7v160006IRS2_vEEOT_, symObjAddr: 0x9CE4, symBinAddr: 0x10000AD10, symSize: 0x24 }
  - { offsetInCU: 0x16D96, offset: 0x16D96, size: 0x8, addend: 0x0, symName: __ZNSt3__122__compressed_pair_elemINS_22__allocator_destructorINS_9allocatorI8CustomerEEEELi1ELb0EEC2B7v160006IS5_vEEOT_, symObjAddr: 0x9D08, symBinAddr: 0x10000AD34, symSize: 0x24 }
  - { offsetInCU: 0x16DD8, offset: 0x16DD8, size: 0x8, addend: 0x0, symName: __ZNKSt3__117__compressed_pairIP8CustomerNS_22__allocator_destructorINS_9allocatorIS1_EEEEE5firstB7v160006Ev, symObjAddr: 0x9D2C, symBinAddr: 0x10000AD58, symSize: 0x24 }
  - { offsetInCU: 0x16DFE, offset: 0x16DFE, size: 0x8, addend: 0x0, symName: __ZNSt3__117__compressed_pairIP8CustomerNS_22__allocator_destructorINS_9allocatorIS1_EEEEE5firstB7v160006Ev, symObjAddr: 0x9D50, symBinAddr: 0x10000AD7C, symSize: 0x24 }
  - { offsetInCU: 0x16E24, offset: 0x16E24, size: 0x8, addend: 0x0, symName: __ZNSt3__110unique_ptrIP8CustomerNS_22__allocator_destructorINS_9allocatorIS1_EEEEED2B7v160006Ev, symObjAddr: 0x9D74, symBinAddr: 0x10000ADA0, symSize: 0x30 }
  - { offsetInCU: 0x16E4E, offset: 0x16E4E, size: 0x8, addend: 0x0, symName: __ZNSt3__110unique_ptrIP8CustomerNS_22__allocator_destructorINS_9allocatorIS1_EEEEE5resetB7v160006ES2_, symObjAddr: 0x9DA4, symBinAddr: 0x10000ADD0, symSize: 0x78 }
  - { offsetInCU: 0x16E92, offset: 0x16E92, size: 0x8, addend: 0x0, symName: __ZNSt3__117__compressed_pairIP8CustomerNS_22__allocator_destructorINS_9allocatorIS1_EEEEE6secondB7v160006Ev, symObjAddr: 0x9E1C, symBinAddr: 0x10000AE48, symSize: 0x28 }
  - { offsetInCU: 0x16EB8, offset: 0x16EB8, size: 0x8, addend: 0x0, symName: __ZNSt3__122__allocator_destructorINS_9allocatorI8CustomerEEEclB7v160006EPS2_, symObjAddr: 0x9E44, symBinAddr: 0x10000AE70, symSize: 0x34 }
  - { offsetInCU: 0x16EEC, offset: 0x16EEC, size: 0x8, addend: 0x0, symName: __ZNSt3__122__compressed_pair_elemINS_22__allocator_destructorINS_9allocatorI8CustomerEEEELi1ELb0EE5__getB7v160006Ev, symObjAddr: 0x9E78, symBinAddr: 0x10000AEA4, symSize: 0x14 }
  - { offsetInCU: 0x16F12, offset: 0x16F12, size: 0x8, addend: 0x0, symName: __ZNSt3__16vectorI7CounterNS_9allocatorIS1_EEE11__make_iterB7v160006EPS1_, symObjAddr: 0x9E8C, symBinAddr: 0x10000AEB8, symSize: 0x34 }
  - { offsetInCU: 0x16F47, offset: 0x16F47, size: 0x8, addend: 0x0, symName: __ZNSt3__111__wrap_iterIP7CounterEC1B7v160006EPKvS2_, symObjAddr: 0x9EC0, symBinAddr: 0x10000AEEC, symSize: 0x3C }
  - { offsetInCU: 0x16F8D, offset: 0x16F8D, size: 0x8, addend: 0x0, symName: __ZNSt3__111__wrap_iterIP7CounterEC2B7v160006EPKvS2_, symObjAddr: 0x9EFC, symBinAddr: 0x10000AF28, symSize: 0x24 }
  - { offsetInCU: 0x16FD3, offset: 0x16FD3, size: 0x8, addend: 0x0, symName: __ZNSt3__116__deque_iteratorI8CustomerPS1_RS1_PS2_lLl512EEC1B7v160006ES4_S2_, symObjAddr: 0x9F20, symBinAddr: 0x10000AF4C, symSize: 0x3C }
  - { offsetInCU: 0x1701B, offset: 0x1701B, size: 0x8, addend: 0x0, symName: __ZNSt3__116__deque_iteratorI8CustomerPS1_RS1_PS2_lLl512EEC2B7v160006ES4_S2_, symObjAddr: 0x9F5C, symBinAddr: 0x10000AF88, symSize: 0x2C }
  - { offsetInCU: 0x17063, offset: 0x17063, size: 0x8, addend: 0x0, symName: __ZNSt3__116reverse_iteratorINS_11__wrap_iterIP7CounterEEEC1B7v160006ES4_, symObjAddr: 0x9F88, symBinAddr: 0x10000AFB4, symSize: 0x34 }
  - { offsetInCU: 0x1709B, offset: 0x1709B, size: 0x8, addend: 0x0, symName: __ZNSt3__116reverse_iteratorINS_11__wrap_iterIP7CounterEEEC2B7v160006ES4_, symObjAddr: 0x9FBC, symBinAddr: 0x10000AFE8, symSize: 0x28 }
  - { offsetInCU: 0x170D3, offset: 0x170D3, size: 0x8, addend: 0x0, symName: __ZNKSt3__116reverse_iteratorINS_11__wrap_iterIP7CounterEEE4baseB7v160006Ev, symObjAddr: 0x9FE4, symBinAddr: 0x10000B010, symSize: 0x20 }
  - { offsetInCU: 0x170F9, offset: 0x170F9, size: 0x8, addend: 0x0, symName: __ZNSt3__111__wrap_iterIP7CounterEmmB7v160006Ev, symObjAddr: 0xA004, symBinAddr: 0x10000B030, symSize: 0x20 }
  - { offsetInCU: 0x1711F, offset: 0x1711F, size: 0x8, addend: 0x0, symName: __ZNSt3__15dequeI8CustomerNS_9allocatorIS1_EEE26__maybe_remove_front_spareB7v160006Eb, symObjAddr: 0xA024, symBinAddr: 0x10000B050, symSize: 0xDC }
  - { offsetInCU: 0x17154, offset: 0x17154, size: 0x8, addend: 0x0, symName: __ZNKSt3__15dequeI8CustomerNS_9allocatorIS1_EEE20__front_spare_blocksB7v160006Ev, symObjAddr: 0xA100, symBinAddr: 0x10000B12C, symSize: 0x2C }
...
